     VMA      LMA     Size Align Out     In      Symbol
       0        0        0     1 PAGE_SIZE = 512
       0        0        0     1 STACK_MIN_SIZE = DEFINED ( stack_min_size ) ? stack_min_size : 1500
       0        0        0     1 END_STACK = ORIGIN ( SRAM ) + LENGTH ( SRAM )
c0de0000 c0de0000     e83f     8 .text
c0de0000 c0de0000        0     1         _text = .
c0de0000 c0de0000        0     1         _nvram_start = .
c0de0000 c0de0000       14     2         build/nanos2/obj/sdk/lib_standard_app/main.o:(.boot)
c0de0000 c0de0000        0     1                 $t.3
c0de0001 c0de0001       14     1                 main
c0de0014 c0de0014        0     1         _code = .
c0de0014 c0de0014       4a     2         build/nanos2/obj/app/src/address.o:(.text.address_from_pubkey)
c0de0014 c0de0014        0     1                 $t.0
c0de0015 c0de0015       4a     1                 address_from_pubkey
c0de005e c0de005e      22e     2         build/nanos2/obj/app/src/apdu/dispatcher.o:(.text.apdu_dispatcher)
c0de005e c0de005e        0     1                 $t.0
c0de005f c0de005f      22e     1                 apdu_dispatcher
c0de028c c0de028c        a     2         build/nanos2/obj/app/src/apdu/dispatcher.o:(.text.io_send_sw)
c0de028c c0de028c        0     1                 $t.1
c0de028d c0de028d        a     1                 io_send_sw
c0de0296 c0de0296        8     2         build/nanos2/obj/app/src/apdu/dispatcher.o:(.text.OUTLINED_FUNCTION_0)
c0de0296 c0de0296        0     1                 $t.2
c0de0297 c0de0297        8     1                 OUTLINED_FUNCTION_0
c0de02a0 c0de02a0       88     4         build/nanos2/obj/app/src/app_main.o:(.text.app_main)
c0de02a0 c0de02a0        0     1                 $t.0
c0de02a1 c0de02a1       88     1                 app_main
c0de0318 c0de0318        0     1                 $d.1
c0de0328 c0de0328       28     4         build/nanos2/obj/app/src/handler/get_app_name.o:(.text.handler_get_app_name)
c0de0328 c0de0328        0     1                 $t.0
c0de0329 c0de0329       28     1                 handler_get_app_name
c0de034c c0de034c        0     1                 $d.1
c0de0350 c0de0350       98     4         build/nanos2/obj/app/src/handler/get_public_key.o:(.text.handler_get_public_key)
c0de0350 c0de0350        0     1                 $t.0
c0de0351 c0de0351       98     1                 handler_get_public_key
c0de03e4 c0de03e4        0     1                 $d.1
c0de03e8 c0de03e8        a     2         build/nanos2/obj/app/src/handler/get_public_key.o:(.text.io_send_sw)
c0de03e8 c0de03e8        0     1                 $t.2
c0de03e9 c0de03e9        a     1                 io_send_sw
c0de03f2 c0de03f2       2e     2         build/nanos2/obj/app/src/handler/get_version.o:(.text.handler_get_version)
c0de03f2 c0de03f2        0     1                 $t.0
c0de03f3 c0de03f3       2e     1                 handler_get_version
c0de0420 c0de0420      128     4         build/nanos2/obj/app/src/handler/sign_tx.o:(.text.handler_sign_tx)
c0de0420 c0de0420        0     1                 $t.0
c0de0421 c0de0421      128     1                 handler_sign_tx
c0de0540 c0de0540        0     1                 $d.1
c0de0548 c0de0548        a     2         build/nanos2/obj/app/src/handler/sign_tx.o:(.text.io_send_sw)
c0de0548 c0de0548        0     1                 $t.2
c0de0549 c0de0549        a     1                 io_send_sw
c0de0552 c0de0552       10     2         build/nanos2/obj/app/src/handler/zkn_magicbox.o:(.text.handler_cmd_dummy)
c0de0552 c0de0552        0     1                 $t.0
c0de0553 c0de0553       10     1                 handler_cmd_dummy
c0de0562 c0de0562       16     2         build/nanos2/obj/app/src/handler/zkn_magicbox.o:(.text.io_send_response_pointer)
c0de0562 c0de0562        0     1                 $t.1
c0de0563 c0de0563       16     1                 io_send_response_pointer
c0de0578 c0de0578        a     2         build/nanos2/obj/app/src/handler/zkn_magicbox.o:(.text.io_send_sw)
c0de0578 c0de0578        0     1                 $t.2
c0de0579 c0de0579        a     1                 io_send_sw
c0de0582 c0de0582       30     2         build/nanos2/obj/app/src/handler/zkn_magicbox.o:(.text.handler_cmd_keccakH)
c0de0582 c0de0582        0     1                 $t.3
c0de0583 c0de0583       30     1                 handler_cmd_keccakH
c0de05b4 c0de05b4       70     4         build/nanos2/obj/app/src/handler/zkn_magicbox.o:(.text.handler_cmd_keccak_prng)
c0de05b4 c0de05b4        0     1                 $t.4
c0de05b5 c0de05b5       70     1                 handler_cmd_keccak_prng
c0de0620 c0de0620        0     1                 $d.5
c0de0624 c0de0624       1e     2         build/nanos2/obj/app/src/handler/zkn_magicbox.o:(.text.handler_cmd_sample_in_ball)
c0de0624 c0de0624        0     1                 $t.6
c0de0625 c0de0625       1e     1                 handler_cmd_sample_in_ball
c0de0642 c0de0642       28     2         build/nanos2/obj/app/src/handler/zkn_magicbox.o:(.text.handler_cmd_keygen_core_dilithium)
c0de0642 c0de0642        0     1                 $t.7
c0de0643 c0de0643       28     1                 handler_cmd_keygen_core_dilithium
c0de066a c0de066a       26     2         build/nanos2/obj/app/src/handler/zkn_magicbox.o:(.text.handler_cmd_keygen_dilithium)
c0de066a c0de066a        0     1                 $t.8
c0de066b c0de066b       26     1                 handler_cmd_keygen_dilithium
c0de0690 c0de0690       d0     4         build/nanos2/obj/app/src/handler/zkn_magicbox.o:(.text.handler_cmd_sign_dilithium)
c0de0690 c0de0690        0     1                 $t.9
c0de0691 c0de0691       d0     1                 handler_cmd_sign_dilithium
c0de0758 c0de0758        0     1                 $d.10
c0de0760 c0de0760       44     4         build/nanos2/obj/app/src/handler/zkn_magicbox.o:(.text.handler_cmd_verify_dilithium)
c0de0760 c0de0760        0     1                 $t.11
c0de0761 c0de0761       44     1                 handler_cmd_verify_dilithium
c0de079c c0de079c        0     1                 $d.12
c0de07a4 c0de07a4       20     4         build/nanos2/obj/app/src/handler/zkn_magicbox.o:(.text.handler_cmd_get_sig_chunk)
c0de07a4 c0de07a4        0     1                 $t.13
c0de07a5 c0de07a5       20     1                 handler_cmd_get_sig_chunk
c0de07c0 c0de07c0        0     1                 $d.14
c0de07c4 c0de07c4       20     4         build/nanos2/obj/app/src/handler/zkn_magicbox.o:(.text.handler_cmd_get_pk_chunk)
c0de07c4 c0de07c4        0     1                 $t.15
c0de07c5 c0de07c5       20     1                 handler_cmd_get_pk_chunk
c0de07e0 c0de07e0        0     1                 $d.16
c0de07e4 c0de07e4       5c     4         build/nanos2/obj/app/src/handler/zkn_magicbox.o:(.text.handler_cmd_Poseidon_ithRC)
c0de07e4 c0de07e4        0     1                 $t.17
c0de07e5 c0de07e5       5c     1                 handler_cmd_Poseidon_ithRC
c0de083c c0de083c        0     1                 $d.18
c0de0840 c0de0840      174     4         build/nanos2/obj/app/src/handler/zkn_magicbox.o:(.text.handler_cmd_tEdwards)
c0de0840 c0de0840        0     1                 $t.19
c0de0841 c0de0841      174     1                 handler_cmd_tEdwards
c0de09a4 c0de09a4        0     1                 $d.20
c0de09b4 c0de09b4        8     2         build/nanos2/obj/app/src/handler/zkn_magicbox.o:(.text.OUTLINED_FUNCTION_0)
c0de09b4 c0de09b4        0     1                 $t.21
c0de09b5 c0de09b5        8     1                 OUTLINED_FUNCTION_0
c0de09bc c0de09bc        8     2         build/nanos2/obj/app/src/handler/zkn_magicbox.o:(.text.OUTLINED_FUNCTION_1)
c0de09bc c0de09bc        0     1                 $t.22
c0de09bd c0de09bd        8     1                 OUTLINED_FUNCTION_1
c0de09c4 c0de09c4        8     2         build/nanos2/obj/app/src/handler/zkn_magicbox.o:(.text.OUTLINED_FUNCTION_2)
c0de09c4 c0de09c4        0     1                 $t.23
c0de09c5 c0de09c5        8     1                 OUTLINED_FUNCTION_2
c0de09cc c0de09cc       44     4         build/nanos2/obj/app/src/helper/send_reponse.o:(.text.helper_send_response_pubkey)
c0de09cc c0de09cc        0     1                 $t.0
c0de09cd c0de09cd       44     1                 helper_send_response_pubkey
c0de0a0c c0de0a0c        0     1                 $d.1
c0de0a10 c0de0a10       18     2         build/nanos2/obj/app/src/helper/send_reponse.o:(.text.io_send_response_pointer)
c0de0a10 c0de0a10        0     1                 $t.2
c0de0a11 c0de0a11       18     1                 io_send_response_pointer
c0de0a28 c0de0a28       44     4         build/nanos2/obj/app/src/helper/send_reponse.o:(.text.helper_send_response_sig)
c0de0a28 c0de0a28        0     1                 $t.3
c0de0a29 c0de0a29       44     1                 helper_send_response_sig
c0de0a68 c0de0a68        0     1                 $d.4
c0de0a6c c0de0a6c       be     2         build/nanos2/obj/app/src/transaction/deserialize.o:(.text.transaction_deserialize)
c0de0a6c c0de0a6c        0     1                 $t.0
c0de0a6d c0de0a6d       be     1                 transaction_deserialize
c0de0b2a c0de0b2a       3a     2         build/nanos2/obj/app/src/transaction/utils.o:(.text.transaction_utils_check_encoding)
c0de0b2a c0de0b2a        0     1                 $t.0
c0de0b2b c0de0b2b       3a     1                 transaction_utils_check_encoding
c0de0b64 c0de0b64        e     2         build/nanos2/obj/app/src/ui/action/validate.o:(.text.validate_pubkey)
c0de0b64 c0de0b64        0     1                 $t.0
c0de0b65 c0de0b65        e     1                 validate_pubkey
c0de0b72 c0de0b72        a     2         build/nanos2/obj/app/src/ui/action/validate.o:(.text.io_send_sw)
c0de0b72 c0de0b72        0     1                 $t.1
c0de0b73 c0de0b73        a     1                 io_send_sw
c0de0b7c c0de0b7c       a4     4         build/nanos2/obj/app/src/ui/action/validate.o:(.text.validate_transaction)
c0de0b7c c0de0b7c        0     1                 $t.2
c0de0b7d c0de0b7d       a4     1                 validate_transaction
c0de0c1c c0de0c1c        0     1                 $d.3
c0de0c20 c0de0c20        6     2         build/nanos2/obj/app/src/ui/menu_nbgl.o:(.text.app_quit)
c0de0c20 c0de0c20        0     1                 $t.0
c0de0c21 c0de0c21        6     1                 app_quit
c0de0c28 c0de0c28       90     4         build/nanos2/obj/app/src/ui/menu_nbgl.o:(.text.ui_menu_main)
c0de0c28 c0de0c28        0     1                 $t.1
c0de0c29 c0de0c29       90     1                 ui_menu_main
c0de0c8c c0de0c8c        0     1                 $d.2
c0de0cb8 c0de0cb8       b4     4         build/nanos2/obj/app/src/ui/menu_nbgl.o:(.text.controls_callback)
c0de0cb8 c0de0cb8        0     1                 $t.3
c0de0cb9 c0de0cb9       b4     1                 controls_callback
c0de0d44 c0de0d44        0     1                 $d.4
c0de0d6c c0de0d6c       7c     4         build/nanos2/obj/app/src/ui/menu_nbgl.o:(.text.review_warning_choice)
c0de0d6c c0de0d6c        0     1                 $t.5
c0de0d6d c0de0d6d       7c     1                 review_warning_choice
c0de0dcc c0de0dcc        0     1                 $d.6
c0de0de8 c0de0de8        6     2         build/nanos2/obj/app/src/ui/menu_nbgl.o:(.text.OUTLINED_FUNCTION_0)
c0de0de8 c0de0de8        0     1                 $t.7
c0de0de9 c0de0de9        6     1                 OUTLINED_FUNCTION_0
c0de0df0 c0de0df0       a4     4         build/nanos2/obj/app/src/ui/nbgl_display_address.o:(.text.ui_display_address)
c0de0df0 c0de0df0        0     1                 $t.0
c0de0df1 c0de0df1       a4     1                 ui_display_address
c0de0e80 c0de0e80        0     1                 $d.1
c0de0e94 c0de0e94        a     2         build/nanos2/obj/app/src/ui/nbgl_display_address.o:(.text.io_send_sw)
c0de0e94 c0de0e94        0     1                 $t.2
c0de0e95 c0de0e95        a     1                 io_send_sw
c0de0ea0 c0de0ea0       20     4         build/nanos2/obj/app/src/ui/nbgl_display_address.o:(.text.review_choice)
c0de0ea0 c0de0ea0        0     1                 $t.3
c0de0ea1 c0de0ea1       20     1                 review_choice
c0de0ebc c0de0ebc        0     1                 $d.4
c0de0ec0 c0de0ec0      13c     4         build/nanos2/obj/app/src/ui/nbgl_display_transaction.o:(.text.ui_display_transaction_bs_choice)
c0de0ec0 c0de0ec0        0     1                 $t.0
c0de0ec1 c0de0ec1      13c     1                 ui_display_transaction_bs_choice
c0de0fd4 c0de0fd4        0     1                 $d.1
c0de0ffc c0de0ffc        a     2         build/nanos2/obj/app/src/ui/nbgl_display_transaction.o:(.text.io_send_sw)
c0de0ffc c0de0ffc        0     1                 $t.2
c0de0ffd c0de0ffd        a     1                 io_send_sw
c0de1008 c0de1008       1c     4         build/nanos2/obj/app/src/ui/nbgl_display_transaction.o:(.text.review_choice)
c0de1008 c0de1008        0     1                 $t.3
c0de1009 c0de1009       1c     1                 review_choice
c0de1020 c0de1020        0     1                 $d.4
c0de1024 c0de1024        6     2         build/nanos2/obj/app/src/ui/nbgl_display_transaction.o:(.text.ui_display_blind_signed_transaction)
c0de1024 c0de1024        0     1                 $t.5
c0de1025 c0de1025        6     1                 ui_display_blind_signed_transaction
c0de102a c0de102a        6     2         build/nanos2/obj/app/src/ui/nbgl_display_transaction.o:(.text.ui_display_transaction)
c0de102a c0de102a        0     1                 $t.6
c0de102b c0de102b        6     1                 ui_display_transaction
c0de1030 c0de1030       10     2         build/nanos2/obj/app/src/zknox/dilithium/fips202.o:(.text.pqcrystals_dilithium_fips202_ref_shake128_init)
c0de1030 c0de1030        0     1                 $t.0
c0de1031 c0de1031       10     1                 pqcrystals_dilithium_fips202_ref_shake128_init
c0de1040 c0de1040       14     2         build/nanos2/obj/app/src/zknox/dilithium/fips202.o:(.text.keccak_init)
c0de1040 c0de1040        0     1                 $t.1
c0de1041 c0de1041       14     1                 keccak_init
c0de1054 c0de1054       16     2         build/nanos2/obj/app/src/zknox/dilithium/fips202.o:(.text.pqcrystals_dilithium_fips202_ref_shake128_absorb)
c0de1054 c0de1054        0     1                 $t.2
c0de1055 c0de1055       16     1                 pqcrystals_dilithium_fips202_ref_shake128_absorb
c0de106a c0de106a       7c     2         build/nanos2/obj/app/src/zknox/dilithium/fips202.o:(.text.keccak_absorb)
c0de106a c0de106a        0     1                 $t.3
c0de106b c0de106b       7c     1                 keccak_absorb
c0de10e6 c0de10e6       16     2         build/nanos2/obj/app/src/zknox/dilithium/fips202.o:(.text.pqcrystals_dilithium_fips202_ref_shake128_finalize)
c0de10e6 c0de10e6        0     1                 $t.4
c0de10e7 c0de10e7       16     1                 pqcrystals_dilithium_fips202_ref_shake128_finalize
c0de10fc c0de10fc       32     2         build/nanos2/obj/app/src/zknox/dilithium/fips202.o:(.text.keccak_finalize)
c0de10fc c0de10fc        0     1                 $t.5
c0de10fd c0de10fd       32     1                 keccak_finalize
c0de112e c0de112e       16     2         build/nanos2/obj/app/src/zknox/dilithium/fips202.o:(.text.pqcrystals_dilithium_fips202_ref_shake128_squeeze)
c0de112e c0de112e        0     1                 $t.6
c0de112f c0de112f       16     1                 pqcrystals_dilithium_fips202_ref_shake128_squeeze
c0de1144 c0de1144       52     2         build/nanos2/obj/app/src/zknox/dilithium/fips202.o:(.text.keccak_squeeze)
c0de1144 c0de1144        0     1                 $t.7
c0de1145 c0de1145       52     1                 keccak_squeeze
c0de1196 c0de1196       e8     2         build/nanos2/obj/app/src/zknox/dilithium/fips202.o:(.text.keccak_absorb_once)
c0de1196 c0de1196        0     1                 $t.9
c0de1197 c0de1197       e8     1                 keccak_absorb_once
c0de127e c0de127e        6     2         build/nanos2/obj/app/src/zknox/dilithium/fips202.o:(.text.pqcrystals_dilithium_fips202_ref_shake128_squeezeblocks)
c0de127e c0de127e        0     1                 $t.10
c0de127f c0de127f        6     1                 pqcrystals_dilithium_fips202_ref_shake128_squeezeblocks
c0de1284 c0de1284       40     2         build/nanos2/obj/app/src/zknox/dilithium/fips202.o:(.text.keccak_squeezeblocks)
c0de1284 c0de1284        0     1                 $t.11
c0de1285 c0de1285       40     1                 keccak_squeezeblocks
c0de12c4 c0de12c4       10     2         build/nanos2/obj/app/src/zknox/dilithium/fips202.o:(.text.pqcrystals_dilithium_fips202_ref_shake256_init)
c0de12c4 c0de12c4        0     1                 $t.12
c0de12c5 c0de12c5       10     1                 pqcrystals_dilithium_fips202_ref_shake256_init
c0de12d4 c0de12d4       16     2         build/nanos2/obj/app/src/zknox/dilithium/fips202.o:(.text.pqcrystals_dilithium_fips202_ref_shake256_absorb)
c0de12d4 c0de12d4        0     1                 $t.13
c0de12d5 c0de12d5       16     1                 pqcrystals_dilithium_fips202_ref_shake256_absorb
c0de12ea c0de12ea       16     2         build/nanos2/obj/app/src/zknox/dilithium/fips202.o:(.text.pqcrystals_dilithium_fips202_ref_shake256_finalize)
c0de12ea c0de12ea        0     1                 $t.14
c0de12eb c0de12eb       16     1                 pqcrystals_dilithium_fips202_ref_shake256_finalize
c0de1300 c0de1300       16     2         build/nanos2/obj/app/src/zknox/dilithium/fips202.o:(.text.pqcrystals_dilithium_fips202_ref_shake256_squeeze)
c0de1300 c0de1300        0     1                 $t.15
c0de1301 c0de1301       16     1                 pqcrystals_dilithium_fips202_ref_shake256_squeeze
c0de1316 c0de1316       1c     2         build/nanos2/obj/app/src/zknox/dilithium/fips202.o:(.text.pqcrystals_dilithium_fips202_ref_shake256_absorb_once)
c0de1316 c0de1316        0     1                 $t.16
c0de1317 c0de1317       1c     1                 pqcrystals_dilithium_fips202_ref_shake256_absorb_once
c0de1332 c0de1332        6     2         build/nanos2/obj/app/src/zknox/dilithium/fips202.o:(.text.pqcrystals_dilithium_fips202_ref_shake256_squeezeblocks)
c0de1332 c0de1332        0     1                 $t.17
c0de1333 c0de1333        6     1                 pqcrystals_dilithium_fips202_ref_shake256_squeezeblocks
c0de1338 c0de1338       3a     2         build/nanos2/obj/app/src/zknox/dilithium/fips202.o:(.text.pqcrystals_dilithium_fips202_ref_shake256)
c0de1338 c0de1338        0     1                 $t.19
c0de1339 c0de1339       3a     1                 pqcrystals_dilithium_fips202_ref_shake256
c0de1374 c0de1374      e9a     4         build/nanos2/obj/app/src/zknox/dilithium/fips202.o:(.text.KeccakF1600_StatePermute)
c0de1374 c0de1374        0     1                 $t.21
c0de1375 c0de1375      e9a     1                 KeccakF1600_StatePermute
c0de146c c0de146c        0     1                 $d.22
c0de1470 c0de1470        0     1                 $t.23
c0de220e c0de220e       22     2         build/nanos2/obj/app/src/zknox/dilithium/fips202.o:(.text.store64)
c0de220e c0de220e        0     1                 $t.24
c0de220f c0de220f       22     1                 store64
c0de2230 c0de2230       10     2         build/nanos2/obj/app/src/zknox/dilithium/fips202.o:(.text.OUTLINED_FUNCTION_0)
c0de2230 c0de2230        0     1                 $t.26
c0de2231 c0de2231       10     1                 OUTLINED_FUNCTION_0
c0de2240 c0de2240       10     2         build/nanos2/obj/app/src/zknox/dilithium/fips202.o:(.text.OUTLINED_FUNCTION_2)
c0de2240 c0de2240        0     1                 $t.28
c0de2241 c0de2241       10     1                 OUTLINED_FUNCTION_2
c0de2250 c0de2250        6     2         build/nanos2/obj/app/src/zknox/dilithium/fips202.o:(.text.OUTLINED_FUNCTION_3)
c0de2250 c0de2250        0     1                 $t.29
c0de2251 c0de2251        6     1                 OUTLINED_FUNCTION_3
c0de2256 c0de2256        8     2         build/nanos2/obj/app/src/zknox/dilithium/keccak256.o:(.text.keccak_init)
c0de2256 c0de2256        0     1                 $t.1
c0de2257 c0de2257        8     1                 keccak_init
c0de225e c0de225e        4     2         build/nanos2/obj/app/src/zknox/dilithium/keccak256.o:(.text.keccak_update)
c0de225e c0de225e        0     1                 $t.2
c0de225f c0de225f        4     1                 keccak_update
c0de2262 c0de2262        4     2         build/nanos2/obj/app/src/zknox/dilithium/keccak256.o:(.text.keccak_final)
c0de2262 c0de2262        0     1                 $t.3
c0de2263 c0de2263        4     1                 keccak_final
c0de2266 c0de2266       22     2         build/nanos2/obj/app/src/zknox/dilithium/keccak_prng.o:(.text.inner_keccak256_init)
c0de2266 c0de2266        0     1                 $t.0
c0de2267 c0de2267       22     1                 inner_keccak256_init
c0de2288 c0de2288       24     2         build/nanos2/obj/app/src/zknox/dilithium/keccak_prng.o:(.text.inner_keccak256_inject)
c0de2288 c0de2288        0     1                 $t.1
c0de2289 c0de2289       24     1                 inner_keccak256_inject
c0de22ac c0de22ac       2c     2         build/nanos2/obj/app/src/zknox/dilithium/keccak_prng.o:(.text.inner_keccak256_flip)
c0de22ac c0de22ac        0     1                 $t.2
c0de22ad c0de22ad       2c     1                 inner_keccak256_flip
c0de22d8 c0de22d8      108     2         build/nanos2/obj/app/src/zknox/dilithium/keccak_prng.o:(.text.inner_keccak256_extract)
c0de22d8 c0de22d8        0     1                 $t.3
c0de22d9 c0de22d9      108     1                 inner_keccak256_extract
c0de23e0 c0de23e0       2c     2         build/nanos2/obj/app/src/zknox/dilithium/lowram.o:(.text.pqcrystals_dilithium2_lowram_pack_sig_h)
c0de23e0 c0de23e0        0     1                 $t.3
c0de23e1 c0de23e1       2c     1                 pqcrystals_dilithium2_lowram_pack_sig_h
c0de240c c0de240c       18     2         build/nanos2/obj/app/src/zknox/dilithium/lowram.o:(.text.pqcrystals_dilithium2_lowram_pack_sig_h_zero)
c0de240c c0de240c        0     1                 $t.4
c0de240d c0de240d       18     1                 pqcrystals_dilithium2_lowram_pack_sig_h_zero
c0de2424 c0de2424       6a     2         build/nanos2/obj/app/src/zknox/dilithium/lowram.o:(.text.poly_challenge_compress)
c0de2424 c0de2424        0     1                 $t.8
c0de2425 c0de2425       6a     1                 poly_challenge_compress
c0de248e c0de248e       64     2         build/nanos2/obj/app/src/zknox/dilithium/lowram.o:(.text.poly_challenge_decompress)
c0de248e c0de248e        0     1                 $t.9
c0de248f c0de248f       64     1                 poly_challenge_decompress
c0de24f2 c0de24f2       f4     2         build/nanos2/obj/app/src/zknox/dilithium/lowram.o:(.text.poly_schoolbook)
c0de24f2 c0de24f2        0     1                 $t.10
c0de24f3 c0de24f3       f4     1                 poly_schoolbook
c0de25e6 c0de25e6       96     2         build/nanos2/obj/app/src/zknox/dilithium/lowram.o:(.text.polyt0_unpack_idx)
c0de25e6 c0de25e6        0     1                 $t.11
c0de25e7 c0de25e7       96     1                 polyt0_unpack_idx
c0de267c c0de267c      108     4         build/nanos2/obj/app/src/zknox/dilithium/lowram.o:(.text.poly_schoolbook_t1)
c0de267c c0de267c        0     1                 $t.12
c0de267d c0de267d      108     1                 poly_schoolbook_t1
c0de2780 c0de2780        0     1                 $d.13
c0de2784 c0de2784       46     2         build/nanos2/obj/app/src/zknox/dilithium/lowram.o:(.text.polyt1_unpack_idx)
c0de2784 c0de2784        0     1                 $t.14
c0de2785 c0de2785       46     1                 polyt1_unpack_idx
c0de27ca c0de27ca       3c     2         build/nanos2/obj/app/src/zknox/dilithium/lowram.o:(.text.polyw_pack)
c0de27ca c0de27ca        0     1                 $t.15
c0de27cb c0de27cb       3c     1                 polyw_pack
c0de2806 c0de2806       30     2         build/nanos2/obj/app/src/zknox/dilithium/lowram.o:(.text.polyw_unpack)
c0de2806 c0de2806        0     1                 $t.16
c0de2807 c0de2807       30     1                 polyw_unpack
c0de2836 c0de2836       30     2         build/nanos2/obj/app/src/zknox/dilithium/lowram.o:(.text.polyw_sub)
c0de2836 c0de2836        0     1                 $t.17
c0de2837 c0de2837       30     1                 polyw_sub
c0de2866 c0de2866       30     2         build/nanos2/obj/app/src/zknox/dilithium/lowram.o:(.text.poly_highbits)
c0de2866 c0de2866        0     1                 $t.18
c0de2867 c0de2867       30     1                 poly_highbits
c0de2898 c0de2898       60     4         build/nanos2/obj/app/src/zknox/dilithium/lowram.o:(.text.poly_lowbits)
c0de2898 c0de2898        0     1                 $t.19
c0de2899 c0de2899       60     1                 poly_lowbits
c0de28ec c0de28ec        0     1                 $d.20
c0de28f8 c0de28f8        e     2         build/nanos2/obj/app/src/zknox/dilithium/lowram.o:(.text.unpack_sk_s1)
c0de28f8 c0de28f8        0     1                 $t.21
c0de28f9 c0de28f9        e     1                 unpack_sk_s1
c0de2906 c0de2906       10     2         build/nanos2/obj/app/src/zknox/dilithium/lowram.o:(.text.unpack_sk_s2)
c0de2906 c0de2906        0     1                 $t.22
c0de2907 c0de2907       10     1                 unpack_sk_s2
c0de2918 c0de2918       5c     4         build/nanos2/obj/app/src/zknox/dilithium/lowram.o:(.text.poly_uniform_pointwise_montgomery_polywadd_lowram)
c0de2918 c0de2918        0     1                 $t.23
c0de2919 c0de2919       5c     1                 poly_uniform_pointwise_montgomery_polywadd_lowram
c0de2970 c0de2970        0     1                 $d.24
c0de2974 c0de2974       2a     2         build/nanos2/obj/app/src/zknox/dilithium/lowram.o:(.text.polyw_add_idx)
c0de2974 c0de2974        0     1                 $t.25
c0de2975 c0de2975       2a     1                 polyw_add_idx
c0de299e c0de299e       42     2         build/nanos2/obj/app/src/zknox/dilithium/lowram.o:(.text.poly_uniform_gamma1_lowram)
c0de299e c0de299e        0     1                 $t.28
c0de299f c0de299f       42     1                 poly_uniform_gamma1_lowram
c0de29e0 c0de29e0       58     2         build/nanos2/obj/app/src/zknox/dilithium/lowram.o:(.text.polyz_unpack_inplace)
c0de29e0 c0de29e0        0     1                 $t.29
c0de29e1 c0de29e1       58     1                 polyz_unpack_inplace
c0de2a38 c0de2a38       46     2         build/nanos2/obj/app/src/zknox/dilithium/lowram.o:(.text.poly_uniform_gamma1_add_lowram)
c0de2a38 c0de2a38        0     1                 $t.31
c0de2a39 c0de2a39       46     1                 poly_uniform_gamma1_add_lowram
c0de2a80 c0de2a80       74     4         build/nanos2/obj/app/src/zknox/dilithium/lowram.o:(.text.poly_make_hint_lowram)
c0de2a80 c0de2a80        0     1                 $t.33
c0de2a81 c0de2a81       74     1                 poly_make_hint_lowram
c0de2af0 c0de2af0        0     1                 $d.34
c0de2af4 c0de2af4       7c     2         build/nanos2/obj/app/src/zknox/dilithium/lowram.o:(.text.unpack_sig_h_indices)
c0de2af4 c0de2af4        0     1                 $t.35
c0de2af5 c0de2af5       7c     1                 unpack_sig_h_indices
c0de2b70 c0de2b70       3e     2         build/nanos2/obj/app/src/zknox/dilithium/lowram.o:(.text.poly_use_hint_lowram)
c0de2b70 c0de2b70        0     1                 $t.36
c0de2b71 c0de2b71       3e     1                 poly_use_hint_lowram
c0de2bae c0de2bae       10     2         build/nanos2/obj/app/src/zknox/dilithium/lowram.o:(.text.pack_pk_rho)
c0de2bae c0de2bae        0     1                 $t.37
c0de2baf c0de2baf       10     1                 pack_pk_rho
c0de2bbe c0de2bbe        e     2         build/nanos2/obj/app/src/zknox/dilithium/lowram.o:(.text.pack_pk_t1)
c0de2bbe c0de2bbe        0     1                 $t.38
c0de2bbf c0de2bbf        e     1                 pack_pk_t1
c0de2bcc c0de2bcc        e     2         build/nanos2/obj/app/src/zknox/dilithium/lowram.o:(.text.pack_sk_s1)
c0de2bcc c0de2bcc        0     1                 $t.39
c0de2bcd c0de2bcd        e     1                 pack_sk_s1
c0de2bda c0de2bda       10     2         build/nanos2/obj/app/src/zknox/dilithium/lowram.o:(.text.pack_sk_s2)
c0de2bda c0de2bda        0     1                 $t.40
c0de2bdb c0de2bdb       10     1                 pack_sk_s2
c0de2bea c0de2bea       10     2         build/nanos2/obj/app/src/zknox/dilithium/lowram.o:(.text.pack_sk_t0)
c0de2bea c0de2bea        0     1                 $t.41
c0de2beb c0de2beb       10     1                 pack_sk_t0
c0de2bfa c0de2bfa       10     2         build/nanos2/obj/app/src/zknox/dilithium/lowram.o:(.text.pack_sk_rho)
c0de2bfa c0de2bfa        0     1                 $t.42
c0de2bfb c0de2bfb       10     1                 pack_sk_rho
c0de2c0a c0de2c0a       12     2         build/nanos2/obj/app/src/zknox/dilithium/lowram.o:(.text.pack_sk_key)
c0de2c0a c0de2c0a        0     1                 $t.43
c0de2c0b c0de2c0b       12     1                 pack_sk_key
c0de2c1c c0de2c1c       12     2         build/nanos2/obj/app/src/zknox/dilithium/lowram.o:(.text.pack_sk_tr)
c0de2c1c c0de2c1c        0     1                 $t.44
c0de2c1d c0de2c1d       12     1                 pack_sk_tr
c0de2c2e c0de2c2e       b2     2         build/nanos2/obj/app/src/zknox/dilithium/lowram.o:(.text.poly_challenge_lowram)
c0de2c2e c0de2c2e        0     1                 $t.45
c0de2c2f c0de2c2f       b2     1                 poly_challenge_lowram
c0de2ce0 c0de2ce0       2c     2         build/nanos2/obj/app/src/zknox/dilithium/lowram.o:(.text.pqcrystals_dilithium2_lowram_poly_pointwise_acc_montgomery)
c0de2ce0 c0de2ce0        0     1                 $t.46
c0de2ce1 c0de2ce1       2c     1                 pqcrystals_dilithium2_lowram_poly_pointwise_acc_montgomery
c0de2d0c c0de2d0c       18     2         build/nanos2/obj/app/src/zknox/dilithium/lowram.o:(.text.OUTLINED_FUNCTION_0)
c0de2d0c c0de2d0c        0     1                 $t.47
c0de2d0d c0de2d0d       18     1                 OUTLINED_FUNCTION_0
c0de2d24 c0de2d24       12     2         build/nanos2/obj/app/src/zknox/dilithium/lowram.o:(.text.OUTLINED_FUNCTION_1)
c0de2d24 c0de2d24        0     1                 $t.48
c0de2d25 c0de2d25       12     1                 OUTLINED_FUNCTION_1
c0de2d36 c0de2d36        c     2         build/nanos2/obj/app/src/zknox/dilithium/lowram.o:(.text.OUTLINED_FUNCTION_2)
c0de2d36 c0de2d36        0     1                 $t.49
c0de2d37 c0de2d37        c     1                 OUTLINED_FUNCTION_2
c0de2d42 c0de2d42        8     2         build/nanos2/obj/app/src/zknox/dilithium/lowram.o:(.text.OUTLINED_FUNCTION_3)
c0de2d42 c0de2d42        0     1                 $t.50
c0de2d43 c0de2d43        8     1                 OUTLINED_FUNCTION_3
c0de2d4a c0de2d4a        a     2         build/nanos2/obj/app/src/zknox/dilithium/lowram.o:(.text.OUTLINED_FUNCTION_4)
c0de2d4a c0de2d4a        0     1                 $t.51
c0de2d4b c0de2d4b        a     1                 OUTLINED_FUNCTION_4
c0de2d54 c0de2d54       68     4         build/nanos2/obj/app/src/zknox/dilithium/ntt.o:(.text.pqcrystals_dilithium2_lowram_ntt)
c0de2d54 c0de2d54        0     1                 $t.0
c0de2d55 c0de2d55       68     1                 pqcrystals_dilithium2_lowram_ntt
c0de2db8 c0de2db8        0     1                 $d.1
c0de2dbc c0de2dbc       94     4         build/nanos2/obj/app/src/zknox/dilithium/ntt.o:(.text.pqcrystals_dilithium2_lowram_invntt_tomont)
c0de2dbc c0de2dbc        0     1                 $t.2
c0de2dbd c0de2dbd       94     1                 pqcrystals_dilithium2_lowram_invntt_tomont
c0de2e4c c0de2e4c        0     1                 $d.3
c0de2e50 c0de2e50       1e     2         build/nanos2/obj/app/src/zknox/dilithium/poly.o:(.text.pqcrystals_dilithium2_lowram_poly_reduce)
c0de2e50 c0de2e50        0     1                 $t.0
c0de2e51 c0de2e51       1e     1                 pqcrystals_dilithium2_lowram_poly_reduce
c0de2e6e c0de2e6e       1e     2         build/nanos2/obj/app/src/zknox/dilithium/poly.o:(.text.pqcrystals_dilithium2_lowram_poly_caddq)
c0de2e6e c0de2e6e        0     1                 $t.1
c0de2e6f c0de2e6f       1e     1                 pqcrystals_dilithium2_lowram_poly_caddq
c0de2e8c c0de2e8c       1e     2         build/nanos2/obj/app/src/zknox/dilithium/poly.o:(.text.pqcrystals_dilithium2_lowram_poly_add)
c0de2e8c c0de2e8c        0     1                 $t.2
c0de2e8d c0de2e8d       1e     1                 pqcrystals_dilithium2_lowram_poly_add
c0de2eaa c0de2eaa        4     2         build/nanos2/obj/app/src/zknox/dilithium/poly.o:(.text.pqcrystals_dilithium2_lowram_poly_ntt)
c0de2eaa c0de2eaa        0     1                 $t.5
c0de2eab c0de2eab        4     1                 pqcrystals_dilithium2_lowram_poly_ntt
c0de2eae c0de2eae        4     2         build/nanos2/obj/app/src/zknox/dilithium/poly.o:(.text.pqcrystals_dilithium2_lowram_poly_invntt_tomont)
c0de2eae c0de2eae        0     1                 $t.6
c0de2eaf c0de2eaf        4     1                 pqcrystals_dilithium2_lowram_poly_invntt_tomont
c0de2eb2 c0de2eb2       26     2         build/nanos2/obj/app/src/zknox/dilithium/poly.o:(.text.pqcrystals_dilithium2_lowram_poly_pointwise_montgomery)
c0de2eb2 c0de2eb2        0     1                 $t.7
c0de2eb3 c0de2eb3       26     1                 pqcrystals_dilithium2_lowram_poly_pointwise_montgomery
c0de2ed8 c0de2ed8       1c     2         build/nanos2/obj/app/src/zknox/dilithium/poly.o:(.text.pqcrystals_dilithium2_lowram_poly_power2round)
c0de2ed8 c0de2ed8        0     1                 $t.8
c0de2ed9 c0de2ed9       1c     1                 pqcrystals_dilithium2_lowram_poly_power2round
c0de2ef4 c0de2ef4       2c     4         build/nanos2/obj/app/src/zknox/dilithium/poly.o:(.text.pqcrystals_dilithium2_lowram_poly_chknorm)
c0de2ef4 c0de2ef4        0     1                 $t.12
c0de2ef5 c0de2ef5       2c     1                 pqcrystals_dilithium2_lowram_poly_chknorm
c0de2f1c c0de2f1c        0     1                 $d.13
c0de2f20 c0de2f20       82     2         build/nanos2/obj/app/src/zknox/dilithium/poly.o:(.text.pqcrystals_dilithium2_lowram_poly_uniform)
c0de2f20 c0de2f20        0     1                 $t.14
c0de2f21 c0de2f21       82     1                 pqcrystals_dilithium2_lowram_poly_uniform
c0de2fa4 c0de2fa4       44     4         build/nanos2/obj/app/src/zknox/dilithium/poly.o:(.text.rej_uniform)
c0de2fa4 c0de2fa4        0     1                 $t.15
c0de2fa5 c0de2fa5       44     1                 rej_uniform
c0de2fe4 c0de2fe4        0     1                 $d.16
c0de2fe8 c0de2fe8       4c     2         build/nanos2/obj/app/src/zknox/dilithium/poly.o:(.text.pqcrystals_dilithium2_lowram_poly_uniform_eta)
c0de2fe8 c0de2fe8        0     1                 $t.17
c0de2fe9 c0de2fe9       4c     1                 pqcrystals_dilithium2_lowram_poly_uniform_eta
c0de3034 c0de3034       56     2         build/nanos2/obj/app/src/zknox/dilithium/poly.o:(.text.rej_eta)
c0de3034 c0de3034        0     1                 $t.18
c0de3035 c0de3035       56     1                 rej_eta
c0de308a c0de308a       a0     2         build/nanos2/obj/app/src/zknox/dilithium/poly.o:(.text.pqcrystals_dilithium2_lowram_polyz_unpack)
c0de308a c0de308a        0     1                 $t.20
c0de308b c0de308b       a0     1                 pqcrystals_dilithium2_lowram_polyz_unpack
c0de312a c0de312a       aa     2         build/nanos2/obj/app/src/zknox/dilithium/poly.o:(.text.pqcrystals_dilithium2_lowram_poly_challenge)
c0de312a c0de312a        0     1                 $t.21
c0de312b c0de312b       aa     1                 pqcrystals_dilithium2_lowram_poly_challenge
c0de31d4 c0de31d4       7c     2         build/nanos2/obj/app/src/zknox/dilithium/poly.o:(.text.pqcrystals_dilithium2_lowram_polyeta_pack)
c0de31d4 c0de31d4        0     1                 $t.22
c0de31d5 c0de31d5       7c     1                 pqcrystals_dilithium2_lowram_polyeta_pack
c0de3250 c0de3250       48     2         build/nanos2/obj/app/src/zknox/dilithium/poly.o:(.text.pqcrystals_dilithium2_lowram_polyt1_pack)
c0de3250 c0de3250        0     1                 $t.25
c0de3251 c0de3251       48     1                 pqcrystals_dilithium2_lowram_polyt1_pack
c0de3298 c0de3298       aa     2         build/nanos2/obj/app/src/zknox/dilithium/poly.o:(.text.pqcrystals_dilithium2_lowram_polyt0_pack)
c0de3298 c0de3298        0     1                 $t.27
c0de3299 c0de3299       aa     1                 pqcrystals_dilithium2_lowram_polyt0_pack
c0de3342 c0de3342       62     2         build/nanos2/obj/app/src/zknox/dilithium/poly.o:(.text.pqcrystals_dilithium2_lowram_polyz_pack)
c0de3342 c0de3342        0     1                 $t.29
c0de3343 c0de3343       62     1                 pqcrystals_dilithium2_lowram_polyz_pack
c0de33a4 c0de33a4       46     2         build/nanos2/obj/app/src/zknox/dilithium/poly.o:(.text.pqcrystals_dilithium2_lowram_polyw1_pack)
c0de33a4 c0de33a4        0     1                 $t.30
c0de33a5 c0de33a5       46     1                 pqcrystals_dilithium2_lowram_polyw1_pack
c0de33ea c0de33ea        a     2         build/nanos2/obj/app/src/zknox/dilithium/poly.o:(.text.OUTLINED_FUNCTION_0)
c0de33ea c0de33ea        0     1                 $t.31
c0de33eb c0de33eb        a     1                 OUTLINED_FUNCTION_0
c0de33f4 c0de33f4        c     2         build/nanos2/obj/app/src/zknox/dilithium/poly.o:(.text.OUTLINED_FUNCTION_1)
c0de33f4 c0de33f4        0     1                 $t.32
c0de33f5 c0de33f5        c     1                 OUTLINED_FUNCTION_1
c0de3400 c0de3400        4     2         build/nanos2/obj/app/src/zknox/dilithium/randombytes.o:(.text.randombytes)
c0de3400 c0de3400        0     1                 $t.0
c0de3401 c0de3401        4     1                 randombytes
c0de3404 c0de3404       18     4         build/nanos2/obj/app/src/zknox/dilithium/reduce.o:(.text.pqcrystals_dilithium2_lowram_montgomery_reduce)
c0de3404 c0de3404        0     1                 $t.0
c0de3405 c0de3405       18     1                 pqcrystals_dilithium2_lowram_montgomery_reduce
c0de3414 c0de3414        0     1                 $d.1
c0de341c c0de341c       14     4         build/nanos2/obj/app/src/zknox/dilithium/reduce.o:(.text.pqcrystals_dilithium2_lowram_reduce32)
c0de341c c0de341c        0     1                 $t.2
c0de341d c0de341d       14     1                 pqcrystals_dilithium2_lowram_reduce32
c0de342c c0de342c        0     1                 $d.3
c0de3430 c0de3430       10     4         build/nanos2/obj/app/src/zknox/dilithium/reduce.o:(.text.pqcrystals_dilithium2_lowram_caddq)
c0de3430 c0de3430        0     1                 $t.4
c0de3431 c0de3431       10     1                 pqcrystals_dilithium2_lowram_caddq
c0de343c c0de343c        0     1                 $d.5
c0de3440 c0de3440       20     4         build/nanos2/obj/app/src/zknox/dilithium/reduce.o:(.text.pqcrystals_dilithium2_lowram_freeze)
c0de3440 c0de3440        0     1                 $t.6
c0de3441 c0de3441       20     1                 pqcrystals_dilithium2_lowram_freeze
c0de3458 c0de3458        0     1                 $d.7
c0de3460 c0de3460       14     2         build/nanos2/obj/app/src/zknox/dilithium/rounding.o:(.text.pqcrystals_dilithium2_lowram_power2round)
c0de3460 c0de3460        0     1                 $t.0
c0de3461 c0de3461       14     1                 pqcrystals_dilithium2_lowram_power2round
c0de3474 c0de3474       40     4         build/nanos2/obj/app/src/zknox/dilithium/rounding.o:(.text.pqcrystals_dilithium2_lowram_decompose)
c0de3474 c0de3474        0     1                 $t.1
c0de3475 c0de3475       40     1                 pqcrystals_dilithium2_lowram_decompose
c0de34a8 c0de34a8        0     1                 $d.2
c0de34b4 c0de34b4       2a     2         build/nanos2/obj/app/src/zknox/dilithium/rounding.o:(.text.pqcrystals_dilithium2_lowram_use_hint)
c0de34b4 c0de34b4        0     1                 $t.5
c0de34b5 c0de34b5       2a     1                 pqcrystals_dilithium2_lowram_use_hint
c0de34de c0de34de       22     2         build/nanos2/obj/app/src/zknox/dilithium/sign.o:(.text.pqcrystals_dilithium2_lowram_keypair)
c0de34de c0de34de        0     1                 $t.0
c0de34df c0de34df       22     1                 pqcrystals_dilithium2_lowram_keypair
c0de3500 c0de3500      1ac     4         build/nanos2/obj/app/src/zknox/dilithium/sign.o:(.text.crypto_sign_keypair_core)
c0de3500 c0de3500        0     1                 $t.1
c0de3501 c0de3501      1ac     1                 crypto_sign_keypair_core
c0de36a8 c0de36a8        0     1                 $d.2
c0de36ac c0de36ac       58     4         build/nanos2/obj/app/src/zknox/dilithium/sign.o:(.text.crypto_sign_signature_init)
c0de36ac c0de36ac        0     1                 $t.3
c0de36ad c0de36ad       58     1                 crypto_sign_signature_init
c0de36fc c0de36fc        0     1                 $d.4
c0de3704 c0de3704       18     4         build/nanos2/obj/app/src/zknox/dilithium/sign.o:(.text.crypto_sign_signature_absorb)
c0de3704 c0de3704        0     1                 $t.5
c0de3705 c0de3705       18     1                 crypto_sign_signature_absorb
c0de3718 c0de3718        0     1                 $d.6
c0de371c c0de371c      318     4         build/nanos2/obj/app/src/zknox/dilithium/sign.o:(.text.crypto_sign_signature_core)
c0de371c c0de371c        0     1                 $t.7
c0de371d c0de371d      318     1                 crypto_sign_signature_core
c0de3a28 c0de3a28        0     1                 $d.8
c0de3a34 c0de3a34      230     4         build/nanos2/obj/app/src/zknox/dilithium/sign.o:(.text.pqcrystals_dilithium2_lowram_verify)
c0de3a34 c0de3a34        0     1                 $t.11
c0de3a35 c0de3a35      230     1                 pqcrystals_dilithium2_lowram_verify
c0de3c58 c0de3c58        0     1                 $d.12
c0de3c64 c0de3c64       5c     2         build/nanos2/obj/app/src/zknox/dilithium/sign.o:(.text.pqcrystals_dilithium2_lowram_open)
c0de3c64 c0de3c64        0     1                 $t.13
c0de3c65 c0de3c65       5c     1                 pqcrystals_dilithium2_lowram_open
c0de3cc0 c0de3cc0        a     2         build/nanos2/obj/app/src/zknox/dilithium/sign.o:(.text.OUTLINED_FUNCTION_0)
c0de3cc0 c0de3cc0        0     1                 $t.14
c0de3cc1 c0de3cc1        a     1                 OUTLINED_FUNCTION_0
c0de3ccc c0de3ccc       7c     4         build/nanos2/obj/app/src/zknox/dilithium/smallntt_3329.o:(.text.small_ntt)
c0de3ccc c0de3ccc        0     1                 $t.0
c0de3ccd c0de3ccd       7c     1                 small_ntt
c0de3d40 c0de3d40        0     1                 $d.1
c0de3d48 c0de3d48       e4     4         build/nanos2/obj/app/src/zknox/dilithium/smallntt_3329.o:(.text.small_invntt_tomont)
c0de3d48 c0de3d48        0     1                 $t.2
c0de3d49 c0de3d49       e4     1                 small_invntt_tomont
c0de3e20 c0de3e20        0     1                 $d.3
c0de3e2c c0de3e2c       78     4         build/nanos2/obj/app/src/zknox/dilithium/smallntt_3329.o:(.text.small_basemul)
c0de3e2c c0de3e2c        0     1                 $t.4
c0de3e2d c0de3e2d       78     1                 small_basemul
c0de3ea0 c0de3ea0        0     1                 $d.5
c0de3ea4 c0de3ea4       18     2         build/nanos2/obj/app/src/zknox/dilithium/smallpoly.o:(.text.poly_small_ntt_copy)
c0de3ea4 c0de3ea4        0     1                 $t.0
c0de3ea5 c0de3ea5       18     1                 poly_small_ntt_copy
c0de3ebc c0de3ebc       58     4         build/nanos2/obj/app/src/zknox/dilithium/smallpoly.o:(.text.poly_small_basemul)
c0de3ebc c0de3ebc        0     1                 $t.3
c0de3ebd c0de3ebd       58     1                 poly_small_basemul
c0de3f10 c0de3f10        0     1                 $d.4
c0de3f14 c0de3f14       22     2         build/nanos2/obj/app/src/zknox/dilithium/smallpoly.o:(.text.poly_small_basemul_invntt)
c0de3f14 c0de3f14        0     1                 $t.5
c0de3f15 c0de3f15       22     1                 poly_small_basemul_invntt
c0de3f36 c0de3f36       a4     2         build/nanos2/obj/app/src/zknox/dilithium/smallpoly.o:(.text.small_polyeta_unpack)
c0de3f36 c0de3f36        0     1                 $t.7
c0de3f37 c0de3f37       a4     1                 small_polyeta_unpack
c0de3fda c0de3fda       28     2         build/nanos2/obj/app/src/zknox/dilithium/symmetric-shake.o:(.text.pqcrystals_dilithium2_lowram_dilithium_shake128_stream_init)
c0de3fda c0de3fda        0     1                 $t.0
c0de3fdb c0de3fdb       28     1                 pqcrystals_dilithium2_lowram_dilithium_shake128_stream_init
c0de4002 c0de4002       28     2         build/nanos2/obj/app/src/zknox/dilithium/symmetric-shake.o:(.text.pqcrystals_dilithium2_lowram_dilithium_shake256_stream_init)
c0de4002 c0de4002        0     1                 $t.1
c0de4003 c0de4003       28     1                 pqcrystals_dilithium2_lowram_dilithium_shake256_stream_init
c0de402a c0de402a       12     2         build/nanos2/obj/app/src/zknox/dilithium/symmetric-shake.o:(.text.OUTLINED_FUNCTION_0)
c0de402a c0de402a        0     1                 $t.2
c0de402b c0de402b       12     1                 OUTLINED_FUNCTION_0
c0de403c c0de403c       22     2         build/nanos2/obj/app/src/zknox/ecc/zkn_tEdwards.o:(.text.tEdwards_alloc)
c0de403c c0de403c        0     1                 $t.0
c0de403d c0de403d       22     1                 tEdwards_alloc
c0de405e c0de405e       d6     2         build/nanos2/obj/app/src/zknox/ecc/zkn_tEdwards.o:(.text.tEdwards_double)
c0de405e c0de405e        0     1                 $t.2
c0de405f c0de405f       d6     1                 tEdwards_double
c0de4134 c0de4134      130     2         build/nanos2/obj/app/src/zknox/ecc/zkn_tEdwards.o:(.text.tEdwards_add)
c0de4134 c0de4134        0     1                 $t.3
c0de4135 c0de4135      130     1                 tEdwards_add
c0de4264 c0de4264       ac     2         build/nanos2/obj/app/src/zknox/ecc/zkn_tEdwards.o:(.text.tEdwards_IsOnCurve)
c0de4264 c0de4264        0     1                 $t.4
c0de4265 c0de4265       ac     1                 tEdwards_IsOnCurve
c0de4310 c0de4310      1dc     4         build/nanos2/obj/app/src/zknox/ecc/zkn_tEdwards.o:(.text.tEdwards_Curve_alloc_init)
c0de4310 c0de4310        0     1                 $t.5
c0de4311 c0de4311      1dc     1                 tEdwards_Curve_alloc_init
c0de44cc c0de44cc        0     1                 $d.6
c0de44ec c0de44ec       26     2         build/nanos2/obj/app/src/zknox/ecc/zkn_tEdwards.o:(.text.tEdwards_SetNeutral)
c0de44ec c0de44ec        0     1                 $t.7
c0de44ed c0de44ed       26     1                 tEdwards_SetNeutral
c0de4512 c0de4512       7e     2         build/nanos2/obj/app/src/zknox/ecc/zkn_tEdwards.o:(.text.tEdwards_init)
c0de4512 c0de4512        0     1                 $t.9
c0de4513 c0de4513       7e     1                 tEdwards_init
c0de4590 c0de4590       4c     2         build/nanos2/obj/app/src/zknox/ecc/zkn_tEdwards.o:(.text.tEdwards_export)
c0de4590 c0de4590        0     1                 $t.10
c0de4591 c0de4591       4c     1                 tEdwards_export
c0de45dc c0de45dc       5a     2         build/nanos2/obj/app/src/zknox/ecc/zkn_tEdwards.o:(.text.tEdwards_normalize)
c0de45dc c0de45dc        0     1                 $t.11
c0de45dd c0de45dd       5a     1                 tEdwards_normalize
c0de4636 c0de4636       26     2         build/nanos2/obj/app/src/zknox/ecc/zkn_tEdwards.o:(.text.tEdwards_copy)
c0de4636 c0de4636        0     1                 $t.12
c0de4637 c0de4637       26     1                 tEdwards_copy
c0de465c c0de465c       3e     2         build/nanos2/obj/app/src/zknox/ecc/zkn_tEdwards.o:(.text.tEdwards_alloc_init)
c0de465c c0de465c        0     1                 $t.13
c0de465d c0de465d       3e     1                 tEdwards_alloc_init
c0de469a c0de469a       ca     2         build/nanos2/obj/app/src/zknox/ecc/zkn_tEdwards.o:(.text.tEdwards_scalarMul_bn)
c0de469a c0de469a        0     1                 $t.15
c0de469b c0de469b       ca     1                 tEdwards_scalarMul_bn
c0de4764 c0de4764       3c     2         build/nanos2/obj/app/src/zknox/ecc/zkn_tEdwards.o:(.text.tEdwards_scalarMul)
c0de4764 c0de4764        0     1                 $t.16
c0de4765 c0de4765       3c     1                 tEdwards_scalarMul
c0de47a0 c0de47a0        6     2         build/nanos2/obj/app/src/zknox/ecc/zkn_tEdwards.o:(.text.OUTLINED_FUNCTION_0)
c0de47a0 c0de47a0        0     1                 $t.17
c0de47a1 c0de47a1        6     1                 OUTLINED_FUNCTION_0
c0de47a6 c0de47a6        6     2         build/nanos2/obj/app/src/zknox/ecc/zkn_tEdwards.o:(.text.OUTLINED_FUNCTION_1)
c0de47a6 c0de47a6        0     1                 $t.18
c0de47a7 c0de47a7        6     1                 OUTLINED_FUNCTION_1
c0de47ac c0de47ac        8     2         build/nanos2/obj/app/src/zknox/ecc/zkn_tEdwards.o:(.text.OUTLINED_FUNCTION_2)
c0de47ac c0de47ac        0     1                 $t.19
c0de47ad c0de47ad        8     1                 OUTLINED_FUNCTION_2
c0de47b4 c0de47b4        a     2         build/nanos2/obj/app/src/zknox/ecc/zkn_tEdwards.o:(.text.OUTLINED_FUNCTION_3)
c0de47b4 c0de47b4        0     1                 $t.20
c0de47b5 c0de47b5        a     1                 OUTLINED_FUNCTION_3
c0de47be c0de47be        c     2         build/nanos2/obj/app/src/zknox/ecc/zkn_tEdwards.o:(.text.OUTLINED_FUNCTION_4)
c0de47be c0de47be        0     1                 $t.21
c0de47bf c0de47bf        c     1                 OUTLINED_FUNCTION_4
c0de47ca c0de47ca        6     2         build/nanos2/obj/app/src/zknox/ecc/zkn_tEdwards.o:(.text.OUTLINED_FUNCTION_5)
c0de47ca c0de47ca        0     1                 $t.22
c0de47cb c0de47cb        6     1                 OUTLINED_FUNCTION_5
c0de47d0 c0de47d0       80     4         build/nanos2/obj/app/src/zknox/hash/zkn_poseidon_constants.o:(.text.grain_lfsr_advance)
c0de47d0 c0de47d0        0     1                 $t.0
c0de47d1 c0de47d1       80     1                 grain_lfsr_advance
c0de4848 c0de4848        0     1                 $d.1
c0de4850 c0de4850       4a     2         build/nanos2/obj/app/src/zknox/hash/zkn_poseidon_constants.o:(.text.next64_graingen)
c0de4850 c0de4850        0     1                 $t.2
c0de4851 c0de4851       4a     1                 next64_graingen
c0de489c c0de489c       30     4         build/nanos2/obj/app/src/zknox/hash/zkn_poseidon_constants.o:(.text.init_generator)
c0de489c c0de489c        0     1                 $t.3
c0de489d c0de489d       30     1                 init_generator
c0de48c4 c0de48c4        0     1                 $d.4
c0de48cc c0de48cc       98     4         build/nanos2/obj/app/src/zknox/hash/zkn_poseidon_constants.o:(.text.gen_integer)
c0de48cc c0de48cc        0     1                 $t.5
c0de48cd c0de48cd       98     1                 gen_integer
c0de4954 c0de4954        0     1                 $d.6
c0de4964 c0de4964        8     2         build/nanos2/obj/app/src/zknox/hash/zkn_poseidon_constants.o:(.text.rev64)
c0de4964 c0de4964        0     1                 $t.7
c0de4965 c0de4965        8     1                 rev64
c0de496c c0de496c        6     2         build/nanos2/obj/app/src/zknox/hash/zkn_poseidon_constants.o:(.text.Poseidon_getNext_RC)
c0de496c c0de496c        0     1                 $t.9
c0de496d c0de496d        6     1                 Poseidon_getNext_RC
c0de4972 c0de4972       4c     2         build/nanos2/obj/app/src/zknox/hash/zkn_poseidon_constants.o:(.text.Poseidon_alloc_init)
c0de4972 c0de4972        0     1                 $t.10
c0de4973 c0de4973       4c     1                 Poseidon_alloc_init
c0de49c0 c0de49c0       c8     4         build/nanos2/obj/sdk/lib_nbgl/src/nbgl_buttons.o:(.text.nbgl_buttonsHandler)
c0de49c0 c0de49c0        0     1                 $t.0
c0de49c1 c0de49c1       c8     1                 nbgl_buttonsHandler
c0de4a84 c0de4a84        0     1                 $d.1
c0de4a88 c0de4a88      1e4     4         build/nanos2/obj/sdk/lib_nbgl/src/nbgl_draw.o:(.text.nbgl_drawRoundedRect)
c0de4a88 c0de4a88        0     1                 $t.0
c0de4a89 c0de4a89      1e4     1                 nbgl_drawRoundedRect
c0de4c64 c0de4c64        0     1                 $d.1
c0de4c6c c0de4c6c       b0     4         build/nanos2/obj/sdk/lib_nbgl/src/nbgl_draw.o:(.text.draw_circle_helper)
c0de4c6c c0de4c6c        0     1                 $t.2
c0de4c6d c0de4c6d       b0     1                 draw_circle_helper
c0de4cf8 c0de4cf8        0     1                 $d.3
c0de4d1c c0de4d1c      2f0     4         build/nanos2/obj/sdk/lib_nbgl/src/nbgl_draw.o:(.text.nbgl_drawRoundedBorderedRect)
c0de4d1c c0de4d1c        0     1                 $t.4
c0de4d1d c0de4d1d      2f0     1                 nbgl_drawRoundedBorderedRect
c0de5004 c0de5004        0     1                 $d.5
c0de500c c0de500c       40     4         build/nanos2/obj/sdk/lib_nbgl/src/nbgl_draw.o:(.text.nbgl_drawIcon)
c0de500c c0de500c        0     1                 $t.6
c0de500d c0de500d       40     1                 nbgl_drawIcon
c0de5048 c0de5048        0     1                 $d.7
c0de504c c0de504c      1c8     2         build/nanos2/obj/sdk/lib_nbgl/src/nbgl_draw.o:(.text.nbgl_drawText)
c0de504c c0de504c        0     1                 $t.8
c0de504d c0de504d      1c8     1                 nbgl_drawText
c0de5214 c0de5214       10     2         build/nanos2/obj/sdk/lib_nbgl/src/nbgl_draw.o:(.text.OUTLINED_FUNCTION_0)
c0de5214 c0de5214        0     1                 $t.9
c0de5215 c0de5215       10     1                 OUTLINED_FUNCTION_0
c0de5224 c0de5224       10     2         build/nanos2/obj/sdk/lib_nbgl/src/nbgl_draw.o:(.text.OUTLINED_FUNCTION_1)
c0de5224 c0de5224        0     1                 $t.10
c0de5225 c0de5225       10     1                 OUTLINED_FUNCTION_1
c0de5234 c0de5234        a     2         build/nanos2/obj/sdk/lib_nbgl/src/nbgl_draw.o:(.text.OUTLINED_FUNCTION_2)
c0de5234 c0de5234        0     1                 $t.11
c0de5235 c0de5235        a     1                 OUTLINED_FUNCTION_2
c0de523e c0de523e        4     2         build/nanos2/obj/sdk/lib_nbgl/src/nbgl_fonts.o:(.text.nbgl_getFont)
c0de523e c0de523e        0     1                 $t.0
c0de523f c0de523f        4     1                 nbgl_getFont
c0de5242 c0de5242       8c     2         build/nanos2/obj/sdk/lib_nbgl/src/nbgl_fonts.o:(.text.nbgl_popUnicodeChar)
c0de5242 c0de5242        0     1                 $t.1
c0de5243 c0de5243       8c     1                 nbgl_popUnicodeChar
c0de52ce c0de52ce        a     2         build/nanos2/obj/sdk/lib_nbgl/src/nbgl_fonts.o:(.text.nbgl_getSingleLineTextWidth)
c0de52ce c0de52ce        0     1                 $t.2
c0de52cf c0de52cf        a     1                 nbgl_getSingleLineTextWidth
c0de52d8 c0de52d8       9a     2         build/nanos2/obj/sdk/lib_nbgl/src/nbgl_fonts.o:(.text.getTextWidth)
c0de52d8 c0de52d8        0     1                 $t.3
c0de52d9 c0de52d9       9a     1                 getTextWidth
c0de5372 c0de5372        a     2         build/nanos2/obj/sdk/lib_nbgl/src/nbgl_fonts.o:(.text.nbgl_getTextWidth)
c0de5372 c0de5372        0     1                 $t.5
c0de5373 c0de5373        a     1                 nbgl_getTextWidth
c0de537c c0de537c       30     2         build/nanos2/obj/sdk/lib_nbgl/src/nbgl_fonts.o:(.text.getCharWidth)
c0de537c c0de537c        0     1                 $t.7
c0de537d c0de537d       30     1                 getCharWidth
c0de53ac c0de53ac        a     2         build/nanos2/obj/sdk/lib_nbgl/src/nbgl_fonts.o:(.text.nbgl_getFontHeight)
c0de53ac c0de53ac        0     1                 $t.8
c0de53ad c0de53ad        a     1                 nbgl_getFontHeight
c0de53b6 c0de53b6        a     2         build/nanos2/obj/sdk/lib_nbgl/src/nbgl_fonts.o:(.text.nbgl_getFontLineHeight)
c0de53b6 c0de53b6        0     1                 $t.9
c0de53b7 c0de53b7        a     1                 nbgl_getFontLineHeight
c0de53c0 c0de53c0       20     2         build/nanos2/obj/sdk/lib_nbgl/src/nbgl_fonts.o:(.text.nbgl_getTextLength)
c0de53c0 c0de53c0        0     1                 $t.12
c0de53c1 c0de53c1       20     1                 nbgl_getTextLength
c0de53e0 c0de53e0       fc     2         build/nanos2/obj/sdk/lib_nbgl/src/nbgl_fonts.o:(.text.nbgl_getTextMaxLenAndWidth)
c0de53e0 c0de53e0        0     1                 $t.13
c0de53e1 c0de53e1       fc     1                 nbgl_getTextMaxLenAndWidth
c0de54dc c0de54dc      124     4         build/nanos2/obj/sdk/lib_nbgl/src/nbgl_fonts.o:(.text.nbgl_getTextMaxLenInNbLines)
c0de54dc c0de54dc        0     1                 $t.14
c0de54dd c0de54dd      124     1                 nbgl_getTextMaxLenInNbLines
c0de55fc c0de55fc        0     1                 $d.15
c0de5600 c0de5600       84     2         build/nanos2/obj/sdk/lib_nbgl/src/nbgl_fonts.o:(.text.nbgl_getTextMaxLenAndWidthFromEnd)
c0de5600 c0de5600        0     1                 $t.16
c0de5601 c0de5601       84     1                 nbgl_getTextMaxLenAndWidthFromEnd
c0de5684 c0de5684       fc     4         build/nanos2/obj/sdk/lib_nbgl/src/nbgl_fonts.o:(.text.nbgl_getTextNbLinesInWidth)
c0de5684 c0de5684        0     1                 $t.17
c0de5685 c0de5685       fc     1                 nbgl_getTextNbLinesInWidth
c0de577c c0de577c        0     1                 $d.18
c0de5780 c0de5780      128     4         build/nanos2/obj/sdk/lib_nbgl/src/nbgl_fonts.o:(.text.nbgl_getTextNbPagesInWidth)
c0de5780 c0de5780        0     1                 $t.19
c0de5781 c0de5781      128     1                 nbgl_getTextNbPagesInWidth
c0de58a4 c0de58a4        0     1                 $d.20
c0de58a8 c0de58a8      134     4         build/nanos2/obj/sdk/lib_nbgl/src/nbgl_fonts.o:(.text.nbgl_textReduceOnNbLines)
c0de58a8 c0de58a8        0     1                 $t.24
c0de58a9 c0de58a9      134     1                 nbgl_textReduceOnNbLines
c0de59d8 c0de59d8        0     1                 $d.25
c0de59dc c0de59dc       78     4         build/nanos2/obj/sdk/lib_nbgl/src/nbgl_layout_nanos.o:(.text.nbgl_layoutGet)
c0de59dc c0de59dc        0     1                 $t.1
c0de59dd c0de59dd       78     1                 nbgl_layoutGet
c0de5a4c c0de5a4c        0     1                 $d.2
c0de5a54 c0de5a54       50     4         build/nanos2/obj/sdk/lib_nbgl/src/nbgl_layout_nanos.o:(.text.buttonCallback)
c0de5a54 c0de5a54        0     1                 $t.3
c0de5a55 c0de5a55       50     1                 buttonCallback
c0de5aa0 c0de5aa0        0     1                 $d.4
c0de5aa4 c0de5aa4       bc     4         build/nanos2/obj/sdk/lib_nbgl/src/nbgl_layout_nanos.o:(.text.nbgl_layoutAddNavigation)
c0de5aa4 c0de5aa4        0     1                 $t.5
c0de5aa5 c0de5aa5       bc     1                 nbgl_layoutAddNavigation
c0de5b50 c0de5b50        0     1                 $d.6
c0de5b60 c0de5b60      368     4         build/nanos2/obj/sdk/lib_nbgl/src/nbgl_layout_nanos.o:(.text.nbgl_layoutAddText)
c0de5b60 c0de5b60        0     1                 $t.7
c0de5b61 c0de5b61      368     1                 nbgl_layoutAddText
c0de5ec4 c0de5ec4        0     1                 $d.8
c0de5ec8 c0de5ec8       a8     2         build/nanos2/obj/sdk/lib_nbgl/src/nbgl_layout_nanos.o:(.text.nbgl_layoutAddMenuList)
c0de5ec8 c0de5ec8        0     1                 $t.9
c0de5ec9 c0de5ec9       a8     1                 nbgl_layoutAddMenuList
c0de5f70 c0de5f70      340     2         build/nanos2/obj/sdk/lib_nbgl/src/nbgl_layout_nanos.o:(.text.nbgl_layoutAddCenteredInfo)
c0de5f70 c0de5f70        0     1                 $t.10
c0de5f71 c0de5f71      340     1                 nbgl_layoutAddCenteredInfo
c0de62b0 c0de62b0      1d0     4         build/nanos2/obj/sdk/lib_nbgl/src/nbgl_layout_nanos.o:(.text.nbgl_layoutAddSwitch)
c0de62b0 c0de62b0        0     1                 $t.13
c0de62b1 c0de62b1      1d0     1                 nbgl_layoutAddSwitch
c0de6470 c0de6470        0     1                 $d.14
c0de6480 c0de6480       10     2         build/nanos2/obj/sdk/lib_nbgl/src/nbgl_layout_nanos.o:(.text.nbgl_layoutDraw)
c0de6480 c0de6480        0     1                 $t.15
c0de6481 c0de6481       10     1                 nbgl_layoutDraw
c0de6490 c0de6490       1a     2         build/nanos2/obj/sdk/lib_nbgl/src/nbgl_layout_nanos.o:(.text.nbgl_layoutRelease)
c0de6490 c0de6490        0     1                 $t.16
c0de6491 c0de6491       1a     1                 nbgl_layoutRelease
c0de64aa c0de64aa       22     2         build/nanos2/obj/sdk/lib_nbgl/src/nbgl_layout_nanos.o:(.text.OUTLINED_FUNCTION_1)
c0de64aa c0de64aa        0     1                 $t.18
c0de64ab c0de64ab       22     1                 OUTLINED_FUNCTION_1
c0de64cc c0de64cc       1a     2         build/nanos2/obj/sdk/lib_nbgl/src/nbgl_layout_nanos.o:(.text.OUTLINED_FUNCTION_2)
c0de64cc c0de64cc        0     1                 $t.19
c0de64cd c0de64cd       1a     1                 OUTLINED_FUNCTION_2
c0de64e6 c0de64e6       1a     2         build/nanos2/obj/sdk/lib_nbgl/src/nbgl_layout_nanos.o:(.text.OUTLINED_FUNCTION_3)
c0de64e6 c0de64e6        0     1                 $t.20
c0de64e7 c0de64e7       1a     1                 OUTLINED_FUNCTION_3
c0de6500 c0de6500        a     2         build/nanos2/obj/sdk/lib_nbgl/src/nbgl_layout_nanos.o:(.text.OUTLINED_FUNCTION_4)
c0de6500 c0de6500        0     1                 $t.21
c0de6501 c0de6501        a     1                 OUTLINED_FUNCTION_4
c0de650a c0de650a        6     2         build/nanos2/obj/sdk/lib_nbgl/src/nbgl_layout_nanos.o:(.text.OUTLINED_FUNCTION_5)
c0de650a c0de650a        0     1                 $t.22
c0de650b c0de650b        6     1                 OUTLINED_FUNCTION_5
c0de6510 c0de6510        8     2         build/nanos2/obj/sdk/lib_nbgl/src/nbgl_layout_nanos.o:(.text.OUTLINED_FUNCTION_6)
c0de6510 c0de6510        0     1                 $t.23
c0de6511 c0de6511        8     1                 OUTLINED_FUNCTION_6
c0de6518 c0de6518       10     2         build/nanos2/obj/sdk/lib_nbgl/src/nbgl_layout_nanos.o:(.text.OUTLINED_FUNCTION_7)
c0de6518 c0de6518        0     1                 $t.24
c0de6519 c0de6519       10     1                 OUTLINED_FUNCTION_7
c0de6528 c0de6528        6     2         build/nanos2/obj/sdk/lib_nbgl/src/nbgl_layout_nanos.o:(.text.OUTLINED_FUNCTION_8)
c0de6528 c0de6528        0     1                 $t.25
c0de6529 c0de6529        6     1                 OUTLINED_FUNCTION_8
c0de652e c0de652e        e     2         build/nanos2/obj/sdk/lib_nbgl/src/nbgl_layout_nanos.o:(.text.OUTLINED_FUNCTION_9)
c0de652e c0de652e        0     1                 $t.26
c0de652f c0de652f        e     1                 OUTLINED_FUNCTION_9
c0de653c c0de653c       58     4         build/nanos2/obj/sdk/lib_nbgl/src/nbgl_obj.o:(.text.nbgl_objDraw)
c0de653c c0de653c        0     1                 $t.0
c0de653d c0de653d       58     1                 nbgl_objDraw
c0de6590 c0de6590        0     1                 $d.1
c0de6594 c0de6594      170     4         build/nanos2/obj/sdk/lib_nbgl/src/nbgl_obj.o:(.text.draw_obj_and_chidren)
c0de6594 c0de6594        0     1                 $t.2
c0de6595 c0de6595      170     1                 draw_obj_and_chidren
c0de66f8 c0de66f8        0     1                 $d.3
c0de6704 c0de6704        6     2         build/nanos2/obj/sdk/lib_nbgl/src/nbgl_obj.o:(.text.nbgl_refresh)
c0de6704 c0de6704        0     1                 $t.4
c0de6705 c0de6705        6     1                 nbgl_refresh
c0de670c c0de670c       3c     4         build/nanos2/obj/sdk/lib_nbgl/src/nbgl_obj.o:(.text.nbgl_refreshSpecial)
c0de670c c0de670c        0     1                 $t.5
c0de670d c0de670d       3c     1                 nbgl_refreshSpecial
c0de6744 c0de6744        0     1                 $d.6
c0de6748 c0de6748        c     4         build/nanos2/obj/sdk/lib_nbgl/src/nbgl_obj.o:(.text.nbgl_objInit)
c0de6748 c0de6748        0     1                 $t.13
c0de6749 c0de6749        c     1                 nbgl_objInit
c0de6750 c0de6750        0     1                 $d.14
c0de6754 c0de6754       10     4         build/nanos2/obj/sdk/lib_nbgl/src/nbgl_obj.o:(.text.nbgl_objAllowDrawing)
c0de6754 c0de6754        0     1                 $t.15
c0de6755 c0de6755       10     1                 nbgl_objAllowDrawing
c0de6760 c0de6760        0     1                 $d.16
c0de6764 c0de6764       40     2         build/nanos2/obj/sdk/lib_nbgl/src/nbgl_obj.o:(.text.draw_screen)
c0de6764 c0de6764        0     1                 $t.17
c0de6765 c0de6765       40     1                 draw_screen
c0de67a4 c0de67a4       28     2         build/nanos2/obj/sdk/lib_nbgl/src/nbgl_obj.o:(.text.draw_container)
c0de67a4 c0de67a4        0     1                 $t.18
c0de67a5 c0de67a5       28     1                 draw_container
c0de67cc c0de67cc       84     2         build/nanos2/obj/sdk/lib_nbgl/src/nbgl_obj.o:(.text.draw_image)
c0de67cc c0de67cc        0     1                 $t.19
c0de67cd c0de67cd       84     1                 draw_image
c0de6850 c0de6850      2bc     4         build/nanos2/obj/sdk/lib_nbgl/src/nbgl_obj.o:(.text.draw_textArea)
c0de6850 c0de6850        0     1                 $t.20
c0de6851 c0de6851      2bc     1                 draw_textArea
c0de6b08 c0de6b08        0     1                 $d.21
c0de6b0c c0de6b0c      1d2     2         build/nanos2/obj/sdk/lib_nbgl/src/nbgl_obj.o:(.text.draw_button)
c0de6b0c c0de6b0c        0     1                 $t.22
c0de6b0d c0de6b0d      1d2     1                 draw_button
c0de6cde c0de6cde       9e     2         build/nanos2/obj/sdk/lib_nbgl/src/nbgl_obj.o:(.text.draw_progressBar)
c0de6cde c0de6cde        0     1                 $t.23
c0de6cdf c0de6cdf       9e     1                 draw_progressBar
c0de6d7c c0de6d7c       4c     4         build/nanos2/obj/sdk/lib_nbgl/src/nbgl_obj.o:(.text.draw_image_file)
c0de6d7c c0de6d7c        0     1                 $t.24
c0de6d7d c0de6d7d       4c     1                 draw_image_file
c0de6dc4 c0de6dc4        0     1                 $d.25
c0de6dc8 c0de6dc8      14c     4         build/nanos2/obj/sdk/lib_nbgl/src/nbgl_obj.o:(.text.draw_textEntry)
c0de6dc8 c0de6dc8        0     1                 $t.26
c0de6dc9 c0de6dc9      14c     1                 draw_textEntry
c0de6f10 c0de6f10        0     1                 $d.27
c0de6f14 c0de6f14      56e     2         build/nanos2/obj/sdk/lib_nbgl/src/nbgl_obj.o:(.text.compute_position)
c0de6f14 c0de6f14        0     1                 $t.28
c0de6f15 c0de6f15      56e     1                 compute_position
c0de7482 c0de7482       14     2         build/nanos2/obj/sdk/lib_nbgl/src/nbgl_obj.o:(.text.OUTLINED_FUNCTION_0)
c0de7482 c0de7482        0     1                 $t.29
c0de7483 c0de7483       14     1                 OUTLINED_FUNCTION_0
c0de7496 c0de7496       14     2         build/nanos2/obj/sdk/lib_nbgl/src/nbgl_obj.o:(.text.OUTLINED_FUNCTION_1)
c0de7496 c0de7496        0     1                 $t.30
c0de7497 c0de7497       14     1                 OUTLINED_FUNCTION_1
c0de74aa c0de74aa       26     2         build/nanos2/obj/sdk/lib_nbgl/src/nbgl_obj.o:(.text.OUTLINED_FUNCTION_2)
c0de74aa c0de74aa        0     1                 $t.31
c0de74ab c0de74ab       26     1                 OUTLINED_FUNCTION_2
c0de74d0 c0de74d0       16     2         build/nanos2/obj/sdk/lib_nbgl/src/nbgl_obj.o:(.text.OUTLINED_FUNCTION_3)
c0de74d0 c0de74d0        0     1                 $t.32
c0de74d1 c0de74d1       16     1                 OUTLINED_FUNCTION_3
c0de74e6 c0de74e6       1c     2         build/nanos2/obj/sdk/lib_nbgl/src/nbgl_obj.o:(.text.OUTLINED_FUNCTION_4)
c0de74e6 c0de74e6        0     1                 $t.33
c0de74e7 c0de74e7       1c     1                 OUTLINED_FUNCTION_4
c0de7502 c0de7502       1c     2         build/nanos2/obj/sdk/lib_nbgl/src/nbgl_obj.o:(.text.OUTLINED_FUNCTION_5)
c0de7502 c0de7502        0     1                 $t.34
c0de7503 c0de7503       1c     1                 OUTLINED_FUNCTION_5
c0de751e c0de751e       18     2         build/nanos2/obj/sdk/lib_nbgl/src/nbgl_obj.o:(.text.OUTLINED_FUNCTION_6)
c0de751e c0de751e        0     1                 $t.35
c0de751f c0de751f       18     1                 OUTLINED_FUNCTION_6
c0de7536 c0de7536       10     2         build/nanos2/obj/sdk/lib_nbgl/src/nbgl_obj.o:(.text.OUTLINED_FUNCTION_7)
c0de7536 c0de7536        0     1                 $t.36
c0de7537 c0de7537       10     1                 OUTLINED_FUNCTION_7
c0de7546 c0de7546       12     2         build/nanos2/obj/sdk/lib_nbgl/src/nbgl_obj.o:(.text.OUTLINED_FUNCTION_8)
c0de7546 c0de7546        0     1                 $t.37
c0de7547 c0de7547       12     1                 OUTLINED_FUNCTION_8
c0de7558 c0de7558        6     2         build/nanos2/obj/sdk/lib_nbgl/src/nbgl_obj.o:(.text.OUTLINED_FUNCTION_9)
c0de7558 c0de7558        0     1                 $t.38
c0de7559 c0de7559        6     1                 OUTLINED_FUNCTION_9
c0de755e c0de755e       10     2         build/nanos2/obj/sdk/lib_nbgl/src/nbgl_obj.o:(.text.OUTLINED_FUNCTION_10)
c0de755e c0de755e        0     1                 $t.39
c0de755f c0de755f       10     1                 OUTLINED_FUNCTION_10
c0de756e c0de756e       10     2         build/nanos2/obj/sdk/lib_nbgl/src/nbgl_obj.o:(.text.OUTLINED_FUNCTION_11)
c0de756e c0de756e        0     1                 $t.40
c0de756f c0de756f       10     1                 OUTLINED_FUNCTION_11
c0de757e c0de757e        e     2         build/nanos2/obj/sdk/lib_nbgl/src/nbgl_obj.o:(.text.OUTLINED_FUNCTION_12)
c0de757e c0de757e        0     1                 $t.41
c0de757f c0de757f        e     1                 OUTLINED_FUNCTION_12
c0de758c c0de758c        e     2         build/nanos2/obj/sdk/lib_nbgl/src/nbgl_obj.o:(.text.OUTLINED_FUNCTION_13)
c0de758c c0de758c        0     1                 $t.42
c0de758d c0de758d        e     1                 OUTLINED_FUNCTION_13
c0de759a c0de759a        e     2         build/nanos2/obj/sdk/lib_nbgl/src/nbgl_obj.o:(.text.OUTLINED_FUNCTION_14)
c0de759a c0de759a        0     1                 $t.43
c0de759b c0de759b        e     1                 OUTLINED_FUNCTION_14
c0de75a8 c0de75a8       34     4         build/nanos2/obj/sdk/lib_nbgl/src/nbgl_obj_pool.o:(.text.nbgl_objPoolRelease)
c0de75a8 c0de75a8        0     1                 $t.0
c0de75a9 c0de75a9       34     1                 nbgl_objPoolRelease
c0de75d8 c0de75d8        0     1                 $d.1
c0de75dc c0de75dc       78     4         build/nanos2/obj/sdk/lib_nbgl/src/nbgl_obj_pool.o:(.text.nbgl_objPoolGet)
c0de75dc c0de75dc        0     1                 $t.4
c0de75dd c0de75dd       78     1                 nbgl_objPoolGet
c0de764c c0de764c        0     1                 $d.5
c0de7654 c0de7654       4c     4         build/nanos2/obj/sdk/lib_nbgl/src/nbgl_obj_pool.o:(.text.nbgl_containerPoolRelease)
c0de7654 c0de7654        0     1                 $t.12
c0de7655 c0de7655       4c     1                 nbgl_containerPoolRelease
c0de7698 c0de7698        0     1                 $d.13
c0de76a0 c0de76a0       90     4         build/nanos2/obj/sdk/lib_nbgl/src/nbgl_obj_pool.o:(.text.nbgl_containerPoolGet)
c0de76a0 c0de76a0        0     1                 $t.14
c0de76a1 c0de76a1       90     1                 nbgl_containerPoolGet
c0de7728 c0de7728        0     1                 $d.15
c0de7730 c0de7730        c     2         build/nanos2/obj/sdk/lib_nbgl/src/nbgl_obj_pool.o:(.text.OUTLINED_FUNCTION_0)
c0de7730 c0de7730        0     1                 $t.18
c0de7731 c0de7731        c     1                 OUTLINED_FUNCTION_0
c0de773c c0de773c        a     2         build/nanos2/obj/sdk/lib_nbgl/src/nbgl_obj_pool.o:(.text.OUTLINED_FUNCTION_1)
c0de773c c0de773c        0     1                 $t.19
c0de773d c0de773d        a     1                 OUTLINED_FUNCTION_1
c0de7748 c0de7748       24     4         build/nanos2/obj/sdk/lib_nbgl/src/nbgl_screen.o:(.text.nbgl_screenRedraw)
c0de7748 c0de7748        0     1                 $t.0
c0de7749 c0de7749       24     1                 nbgl_screenRedraw
c0de7768 c0de7768        0     1                 $d.1
c0de776c c0de776c       18     4         build/nanos2/obj/sdk/lib_nbgl/src/nbgl_screen.o:(.text.nbgl_screenGetTop)
c0de776c c0de776c        0     1                 $t.4
c0de776d c0de776d       18     1                 nbgl_screenGetTop
c0de7780 c0de7780        0     1                 $d.5
c0de7784 c0de7784       44     4         build/nanos2/obj/sdk/lib_nbgl/src/nbgl_screen.o:(.text.nbgl_screenSet)
c0de7784 c0de7784        0     1                 $t.10
c0de7785 c0de7785       44     1                 nbgl_screenSet
c0de77c0 c0de77c0        0     1                 $d.11
c0de77c8 c0de77c8      12c     4         build/nanos2/obj/sdk/lib_nbgl/src/nbgl_screen.o:(.text.nbgl_screenSetAt)
c0de77c8 c0de77c8        0     1                 $t.12
c0de77c9 c0de77c9      12c     1                 nbgl_screenSetAt
c0de78f0 c0de78f0        0     1                 $d.13
c0de78f4 c0de78f4      108     4         build/nanos2/obj/sdk/lib_nbgl/src/nbgl_screen.o:(.text.nbgl_screenPush)
c0de78f4 c0de78f4        0     1                 $t.22
c0de78f5 c0de78f5      108     1                 nbgl_screenPush
c0de79f4 c0de79f4        0     1                 $d.23
c0de79fc c0de79fc      130     4         build/nanos2/obj/sdk/lib_nbgl/src/nbgl_screen.o:(.text.nbgl_screenPop)
c0de79fc c0de79fc        0     1                 $t.24
c0de79fd c0de79fd      130     1                 nbgl_screenPop
c0de7b24 c0de7b24        0     1                 $d.25
c0de7b2c c0de7b2c       88     4         build/nanos2/obj/sdk/lib_nbgl/src/nbgl_screen.o:(.text.nbgl_screenHandler)
c0de7b2c c0de7b2c        0     1                 $t.28
c0de7b2d c0de7b2d       88     1                 nbgl_screenHandler
c0de7bb0 c0de7bb0        0     1                 $d.29
c0de7bb4 c0de7bb4       72     2         build/nanos2/obj/sdk/lib_nbgl/src/nbgl_step.o:(.text.nbgl_stepDrawText)
c0de7bb4 c0de7bb4        0     1                 $t.0
c0de7bb5 c0de7bb5       72     1                 nbgl_stepDrawText
c0de7c28 c0de7c28       4c     4         build/nanos2/obj/sdk/lib_nbgl/src/nbgl_step.o:(.text.getFreeContext)
c0de7c28 c0de7c28        0     1                 $t.1
c0de7c29 c0de7c29       4c     1                 getFreeContext
c0de7c70 c0de7c70        0     1                 $d.2
c0de7c74 c0de7c74      1cc     4         build/nanos2/obj/sdk/lib_nbgl/src/nbgl_step.o:(.text.displayTextPage)
c0de7c74 c0de7c74        0     1                 $t.3
c0de7c75 c0de7c75      1cc     1                 displayTextPage
c0de7e38 c0de7e38        0     1                 $d.4
c0de7e40 c0de7e40       7c     4         build/nanos2/obj/sdk/lib_nbgl/src/nbgl_step.o:(.text.nbgl_stepDrawCenteredInfo)
c0de7e40 c0de7e40        0     1                 $t.5
c0de7e41 c0de7e41       7c     1                 nbgl_stepDrawCenteredInfo
c0de7eb8 c0de7eb8        0     1                 $d.6
c0de7ebc c0de7ebc       6c     2         build/nanos2/obj/sdk/lib_nbgl/src/nbgl_step.o:(.text.actionCallback)
c0de7ebc c0de7ebc        0     1                 $t.7
c0de7ebd c0de7ebd       6c     1                 actionCallback
c0de7f28 c0de7f28       38     2         build/nanos2/obj/sdk/lib_nbgl/src/nbgl_step.o:(.text.getNavigationInfo)
c0de7f28 c0de7f28        0     1                 $t.8
c0de7f29 c0de7f29       38     1                 getNavigationInfo
c0de7f60 c0de7f60       36     2         build/nanos2/obj/sdk/lib_nbgl/src/nbgl_step.o:(.text.nbgl_stepDrawMenuList)
c0de7f60 c0de7f60        0     1                 $t.9
c0de7f61 c0de7f61       36     1                 nbgl_stepDrawMenuList
c0de7f98 c0de7f98       78     4         build/nanos2/obj/sdk/lib_nbgl/src/nbgl_step.o:(.text.displayMenuList)
c0de7f98 c0de7f98        0     1                 $t.10
c0de7f99 c0de7f99       78     1                 displayMenuList
c0de800c c0de800c        0     1                 $d.11
c0de8010 c0de8010       7c     4         build/nanos2/obj/sdk/lib_nbgl/src/nbgl_step.o:(.text.nbgl_stepDrawSwitch)
c0de8010 c0de8010        0     1                 $t.13
c0de8011 c0de8011       7c     1                 nbgl_stepDrawSwitch
c0de8088 c0de8088        0     1                 $d.14
c0de808c c0de808c       18     2         build/nanos2/obj/sdk/lib_nbgl/src/nbgl_step.o:(.text.nbgl_stepRelease)
c0de808c c0de808c        0     1                 $t.15
c0de808d c0de808d       18     1                 nbgl_stepRelease
c0de80a4 c0de80a4       28     4         build/nanos2/obj/sdk/lib_nbgl/src/nbgl_step.o:(.text.getContextFromLayout)
c0de80a4 c0de80a4        0     1                 $t.16
c0de80a5 c0de80a5       28     1                 getContextFromLayout
c0de80c8 c0de80c8        0     1                 $d.17
c0de80cc c0de80cc       40     2         build/nanos2/obj/sdk/lib_nbgl/src/nbgl_step.o:(.text.menuListActionCallback)
c0de80cc c0de80cc        0     1                 $t.18
c0de80cd c0de80cd       40     1                 menuListActionCallback
c0de810c c0de810c       8e     2         build/nanos2/obj/sdk/lib_nbgl/src/nbgl_step.o:(.text.OUTLINED_FUNCTION_0)
c0de810c c0de810c        0     1                 $t.19
c0de810d c0de810d       8e     1                 OUTLINED_FUNCTION_0
c0de819a c0de819a       4a     2         build/nanos2/obj/sdk/lib_nbgl/src/nbgl_step.o:(.text.OUTLINED_FUNCTION_1)
c0de819a c0de819a        0     1                 $t.20
c0de819b c0de819b       4a     1                 OUTLINED_FUNCTION_1
c0de81e4 c0de81e4       12     2         build/nanos2/obj/sdk/lib_nbgl/src/nbgl_step.o:(.text.OUTLINED_FUNCTION_2)
c0de81e4 c0de81e4        0     1                 $t.21
c0de81e5 c0de81e5       12     1                 OUTLINED_FUNCTION_2
c0de81f6 c0de81f6        a     2         build/nanos2/obj/sdk/lib_nbgl/src/nbgl_step.o:(.text.OUTLINED_FUNCTION_3)
c0de81f6 c0de81f6        0     1                 $t.22
c0de81f7 c0de81f7        a     1                 OUTLINED_FUNCTION_3
c0de8200 c0de8200        6     2         build/nanos2/obj/sdk/lib_nbgl/src/nbgl_step.o:(.text.OUTLINED_FUNCTION_4)
c0de8200 c0de8200        0     1                 $t.23
c0de8201 c0de8201        6     1                 OUTLINED_FUNCTION_4
c0de8206 c0de8206        e     2         build/nanos2/obj/sdk/lib_nbgl/src/nbgl_step.o:(.text.OUTLINED_FUNCTION_5)
c0de8206 c0de8206        0     1                 $t.24
c0de8207 c0de8207        e     1                 OUTLINED_FUNCTION_5
c0de8214 c0de8214       4c     4         build/nanos2/obj/sdk/lib_nbgl/src/nbgl_use_case_nanos.o:(.text.nbgl_useCaseHomeAndSettings)
c0de8214 c0de8214        0     1                 $t.11
c0de8215 c0de8215       4c     1                 nbgl_useCaseHomeAndSettings
c0de825c c0de825c        0     1                 $d.12
c0de8260 c0de8260       78     4         build/nanos2/obj/sdk/lib_nbgl/src/nbgl_use_case_nanos.o:(.text.startUseCaseSettingsAtPage)
c0de8260 c0de8260        0     1                 $t.13
c0de8261 c0de8261       78     1                 startUseCaseSettingsAtPage
c0de82d4 c0de82d4        0     1                 $d.14
c0de82d8 c0de82d8       8c     4         build/nanos2/obj/sdk/lib_nbgl/src/nbgl_use_case_nanos.o:(.text.startUseCaseHome)
c0de82d8 c0de82d8        0     1                 $t.15
c0de82d9 c0de82d9       8c     1                 startUseCaseHome
c0de8360 c0de8360        0     1                 $d.16
c0de8364 c0de8364       20     2         build/nanos2/obj/sdk/lib_nbgl/src/nbgl_use_case_nanos.o:(.text.nbgl_useCaseReview)
c0de8364 c0de8364        0     1                 $t.20
c0de8365 c0de8365       20     1                 nbgl_useCaseReview
c0de8384 c0de8384       50     4         build/nanos2/obj/sdk/lib_nbgl/src/nbgl_use_case_nanos.o:(.text.useCaseReview)
c0de8384 c0de8384        0     1                 $t.21
c0de8385 c0de8385       50     1                 useCaseReview
c0de83d0 c0de83d0        0     1                 $d.22
c0de83d4 c0de83d4       b0     4         build/nanos2/obj/sdk/lib_nbgl/src/nbgl_use_case_nanos.o:(.text.nbgl_useCaseAdvancedReview)
c0de83d4 c0de83d4        0     1                 $t.23
c0de83d5 c0de83d5       b0     1                 nbgl_useCaseAdvancedReview
c0de8480 c0de8480        0     1                 $d.24
c0de8484 c0de8484       14     4         build/nanos2/obj/sdk/lib_nbgl/src/nbgl_use_case_nanos.o:(.text.displayInitialWarning)
c0de8484 c0de8484        0     1                 $t.25
c0de8485 c0de8485       14     1                 displayInitialWarning
c0de8494 c0de8494        0     1                 $d.26
c0de8498 c0de8498       24     4         build/nanos2/obj/sdk/lib_nbgl/src/nbgl_use_case_nanos.o:(.text.nbgl_useCaseReviewBlindSigning)
c0de8498 c0de8498        0     1                 $t.27
c0de8499 c0de8499       24     1                 nbgl_useCaseReviewBlindSigning
c0de84b8 c0de84b8        0     1                 $d.28
c0de84bc c0de84bc       60     4         build/nanos2/obj/sdk/lib_nbgl/src/nbgl_use_case_nanos.o:(.text.nbgl_useCaseAddressReview)
c0de84bc c0de84bc        0     1                 $t.30
c0de84bd c0de84bd       60     1                 nbgl_useCaseAddressReview
c0de8518 c0de8518        0     1                 $d.31
c0de851c c0de851c      118     4         build/nanos2/obj/sdk/lib_nbgl/src/nbgl_use_case_nanos.o:(.text.displayReviewPage)
c0de851c c0de851c        0     1                 $t.32
c0de851d c0de851d      118     1                 displayReviewPage
c0de8624 c0de8624        0     1                 $d.33
c0de8634 c0de8634       40     4         build/nanos2/obj/sdk/lib_nbgl/src/nbgl_use_case_nanos.o:(.text.nbgl_useCaseStatus)
c0de8634 c0de8634        0     1                 $t.36
c0de8635 c0de8635       40     1                 nbgl_useCaseStatus
c0de866c c0de866c        0     1                 $d.37
c0de8674 c0de8674      188     4         build/nanos2/obj/sdk/lib_nbgl/src/nbgl_use_case_nanos.o:(.text.drawStep)
c0de8674 c0de8674        0     1                 $t.38
c0de8675 c0de8675      188     1                 drawStep
c0de87e8 c0de87e8        0     1                 $d.39
c0de87fc c0de87fc       1c     4         build/nanos2/obj/sdk/lib_nbgl/src/nbgl_use_case_nanos.o:(.text.statusButtonCallback)
c0de87fc c0de87fc        0     1                 $t.40
c0de87fd c0de87fd       1c     1                 statusButtonCallback
c0de8814 c0de8814        0     1                 $d.41
c0de8818 c0de8818       94     4         build/nanos2/obj/sdk/lib_nbgl/src/nbgl_use_case_nanos.o:(.text.nbgl_useCaseReviewStatus)
c0de8818 c0de8818        0     1                 $t.42
c0de8819 c0de8819       94     1                 nbgl_useCaseReviewStatus
c0de888c c0de888c        0     1                 $d.43
c0de88ac c0de88ac      184     4         build/nanos2/obj/sdk/lib_nbgl/src/nbgl_use_case_nanos.o:(.text.displayStreamingReviewPage)
c0de88ac c0de88ac        0     1                 $t.46
c0de88ad c0de88ad      184     1                 displayStreamingReviewPage
c0de8a1c c0de8a1c        0     1                 $d.47
c0de8a30 c0de8a30       38     4         build/nanos2/obj/sdk/lib_nbgl/src/nbgl_use_case_nanos.o:(.text.nbgl_useCaseChoice)
c0de8a30 c0de8a30        0     1                 $t.59
c0de8a31 c0de8a31       38     1                 nbgl_useCaseChoice
c0de8a64 c0de8a64        0     1                 $d.60
c0de8a68 c0de8a68       bc     4         build/nanos2/obj/sdk/lib_nbgl/src/nbgl_use_case_nanos.o:(.text.displayChoicePage)
c0de8a68 c0de8a68        0     1                 $t.61
c0de8a69 c0de8a69       bc     1                 displayChoicePage
c0de8b0c c0de8b0c        0     1                 $d.62
c0de8b24 c0de8b24       b4     4         build/nanos2/obj/sdk/lib_nbgl/src/nbgl_use_case_nanos.o:(.text.getContentAtIdx)
c0de8b24 c0de8b24        0     1                 $t.71
c0de8b25 c0de8b25       b4     1                 getContentAtIdx
c0de8bd4 c0de8bd4        0     1                 $d.72
c0de8bd8 c0de8bd8       34     2         build/nanos2/obj/sdk/lib_nbgl/src/nbgl_use_case_nanos.o:(.text.getContentNbElement)
c0de8bd8 c0de8bd8        0     1                 $t.73
c0de8bd9 c0de8bd9       34     1                 getContentNbElement
c0de8c0c c0de8c0c       ac     4         build/nanos2/obj/sdk/lib_nbgl/src/nbgl_use_case_nanos.o:(.text.displayContent)
c0de8c0c c0de8c0c        0     1                 $t.74
c0de8c0d c0de8c0d       ac     1                 displayContent
c0de8ca0 c0de8ca0        0     1                 $d.75
c0de8cb8 c0de8cb8      144     4         build/nanos2/obj/sdk/lib_nbgl/src/nbgl_use_case_nanos.o:(.text.getContentPage)
c0de8cb8 c0de8cb8        0     1                 $t.76
c0de8cb9 c0de8cb9      144     1                 getContentPage
c0de8df0 c0de8df0        0     1                 $d.77
c0de8dfc c0de8dfc       50     4         build/nanos2/obj/sdk/lib_nbgl/src/nbgl_use_case_nanos.o:(.text.drawSwitchStep)
c0de8dfc c0de8dfc        0     1                 $t.78
c0de8dfd c0de8dfd       50     1                 drawSwitchStep
c0de8e48 c0de8e48        0     1                 $d.79
c0de8e4c c0de8e4c       1e     2         build/nanos2/obj/sdk/lib_nbgl/src/nbgl_use_case_nanos.o:(.text.contentCallback)
c0de8e4c c0de8e4c        0     1                 $t.80
c0de8e4d c0de8e4d       1e     1                 contentCallback
c0de8e6c c0de8e6c       88     4         build/nanos2/obj/sdk/lib_nbgl/src/nbgl_use_case_nanos.o:(.text.getContentElemAtIdx)
c0de8e6c c0de8e6c        0     1                 $t.81
c0de8e6d c0de8e6d       88     1                 getContentElemAtIdx
c0de8eec c0de8eec        0     1                 $d.82
c0de8ef4 c0de8ef4       46     2         build/nanos2/obj/sdk/lib_nbgl/src/nbgl_use_case_nanos.o:(.text.getPairData)
c0de8ef4 c0de8ef4        0     1                 $t.83
c0de8ef5 c0de8ef5       46     1                 getPairData
c0de8f3c c0de8f3c       b0     4         build/nanos2/obj/sdk/lib_nbgl/src/nbgl_use_case_nanos.o:(.text.onSwitchAction)
c0de8f3c c0de8f3c        0     1                 $t.84
c0de8f3d c0de8f3d       b0     1                 onSwitchAction
c0de8fe4 c0de8fe4        0     1                 $d.85
c0de8fec c0de8fec       9c     4         build/nanos2/obj/sdk/lib_nbgl/src/nbgl_use_case_nanos.o:(.text.displaySettingsPage)
c0de8fec c0de8fec        0     1                 $t.86
c0de8fed c0de8fed       9c     1                 displaySettingsPage
c0de9070 c0de9070        0     1                 $d.87
c0de9088 c0de9088       1e     2         build/nanos2/obj/sdk/lib_nbgl/src/nbgl_use_case_nanos.o:(.text.settingsCallback)
c0de9088 c0de9088        0     1                 $t.88
c0de9089 c0de9089       1e     1                 settingsCallback
c0de90a8 c0de90a8      120     4         build/nanos2/obj/sdk/lib_nbgl/src/nbgl_use_case_nanos.o:(.text.buttonGenericCallback)
c0de90a8 c0de90a8        0     1                 $t.89
c0de90a9 c0de90a9      120     1                 buttonGenericCallback
c0de91c0 c0de91c0        0     1                 $d.90
c0de91c8 c0de91c8       fc     4         build/nanos2/obj/sdk/lib_nbgl/src/nbgl_use_case_nanos.o:(.text.displayHomePage)
c0de91c8 c0de91c8        0     1                 $t.91
c0de91c9 c0de91c9       fc     1                 displayHomePage
c0de9298 c0de9298        0     1                 $d.92
c0de92c4 c0de92c4        6     2         build/nanos2/obj/sdk/lib_nbgl/src/nbgl_use_case_nanos.o:(.text.startUseCaseSettings)
c0de92c4 c0de92c4        0     1                 $t.93
c0de92c5 c0de92c5        6     1                 startUseCaseSettings
c0de92cc c0de92cc       24     4         build/nanos2/obj/sdk/lib_nbgl/src/nbgl_use_case_nanos.o:(.text.startUseCaseInfo)
c0de92cc c0de92cc        0     1                 $t.94
c0de92cd c0de92cd       24     1                 startUseCaseInfo
c0de92ec c0de92ec        0     1                 $d.95
c0de92f0 c0de92f0       1c     2         build/nanos2/obj/sdk/lib_nbgl/src/nbgl_use_case_nanos.o:(.text.homeCallback)
c0de92f0 c0de92f0        0     1                 $t.96
c0de92f1 c0de92f1       1c     1                 homeCallback
c0de930c c0de930c       78     4         build/nanos2/obj/sdk/lib_nbgl/src/nbgl_use_case_nanos.o:(.text.displayInfoPage)
c0de930c c0de930c        0     1                 $t.97
c0de930d c0de930d       78     1                 displayInfoPage
c0de936c c0de936c        0     1                 $d.98
c0de9384 c0de9384       1c     2         build/nanos2/obj/sdk/lib_nbgl/src/nbgl_use_case_nanos.o:(.text.infoCallback)
c0de9384 c0de9384        0     1                 $t.99
c0de9385 c0de9385       1c     1                 infoCallback
c0de93a0 c0de93a0       80     4         build/nanos2/obj/sdk/lib_nbgl/src/nbgl_use_case_nanos.o:(.text.displayWarningStep)
c0de93a0 c0de93a0        0     1                 $t.100
c0de93a1 c0de93a1       80     1                 displayWarningStep
c0de940c c0de940c        0     1                 $d.101
c0de9420 c0de9420      128     4         build/nanos2/obj/sdk/lib_nbgl/src/nbgl_use_case_nanos.o:(.text.getLastPageInfo)
c0de9420 c0de9420        0     1                 $t.102
c0de9421 c0de9421      128     1                 getLastPageInfo
c0de94ec c0de94ec        0     1                 $d.103
c0de9548 c0de9548       9c     4         build/nanos2/obj/sdk/lib_nbgl/src/nbgl_use_case_nanos.o:(.text.warningNavigate)
c0de9548 c0de9548        0     1                 $t.104
c0de9549 c0de9549       9c     1                 warningNavigate
c0de95e0 c0de95e0        0     1                 $d.105
c0de95e4 c0de95e4       14     4         build/nanos2/obj/sdk/lib_nbgl/src/nbgl_use_case_nanos.o:(.text.onReviewAccept)
c0de95e4 c0de95e4        0     1                 $t.106
c0de95e5 c0de95e5       14     1                 onReviewAccept
c0de95f4 c0de95f4        0     1                 $d.107
c0de95f8 c0de95f8       14     4         build/nanos2/obj/sdk/lib_nbgl/src/nbgl_use_case_nanos.o:(.text.onReviewReject)
c0de95f8 c0de95f8        0     1                 $t.108
c0de95f9 c0de95f9       14     1                 onReviewReject
c0de9608 c0de9608        0     1                 $d.109
c0de960c c0de960c       68     4         build/nanos2/obj/sdk/lib_nbgl/src/nbgl_use_case_nanos.o:(.text.displayAliasFullValue)
c0de960c c0de960c        0     1                 $t.110
c0de960d c0de960d       68     1                 displayAliasFullValue
c0de9670 c0de9670        0     1                 $d.111
c0de9674 c0de9674       1c     2         build/nanos2/obj/sdk/lib_nbgl/src/nbgl_use_case_nanos.o:(.text.reviewCallback)
c0de9674 c0de9674        0     1                 $t.112
c0de9675 c0de9675       1c     1                 reviewCallback
c0de9690 c0de9690       bc     4         build/nanos2/obj/sdk/lib_nbgl/src/nbgl_use_case_nanos.o:(.text.displayExtensionStep)
c0de9690 c0de9690        0     1                 $t.113
c0de9691 c0de9691       bc     1                 displayExtensionStep
c0de9738 c0de9738        0     1                 $d.114
c0de974c c0de974c       7c     4         build/nanos2/obj/sdk/lib_nbgl/src/nbgl_use_case_nanos.o:(.text.extensionNavigate)
c0de974c c0de974c        0     1                 $t.115
c0de974d c0de974d       7c     1                 extensionNavigate
c0de97c4 c0de97c4        0     1                 $d.116
c0de97c8 c0de97c8       10     4         build/nanos2/obj/sdk/lib_nbgl/src/nbgl_use_case_nanos.o:(.text.statusTickerCallback)
c0de97c8 c0de97c8        0     1                 $t.117
c0de97c9 c0de97c9       10     1                 statusTickerCallback
c0de97d4 c0de97d4        0     1                 $d.118
c0de97d8 c0de97d8       64     4         build/nanos2/obj/sdk/lib_nbgl/src/nbgl_use_case_nanos.o:(.text.getChoiceName)
c0de97d8 c0de97d8        0     1                 $t.119
c0de97d9 c0de97d9       64     1                 getChoiceName
c0de9834 c0de9834        0     1                 $d.120
c0de983c c0de983c       6c     4         build/nanos2/obj/sdk/lib_nbgl/src/nbgl_use_case_nanos.o:(.text.onChoiceSelected)
c0de983c c0de983c        0     1                 $t.121
c0de983d c0de983d       6c     1                 onChoiceSelected
c0de98a4 c0de98a4        0     1                 $d.122
c0de98a8 c0de98a8       70     4         build/nanos2/obj/sdk/lib_nbgl/src/nbgl_use_case_nanos.o:(.text.buttonSkipCallback)
c0de98a8 c0de98a8        0     1                 $t.123
c0de98a9 c0de98a9       70     1                 buttonSkipCallback
c0de9914 c0de9914        0     1                 $d.124
c0de9918 c0de9918       2c     4         build/nanos2/obj/sdk/lib_nbgl/src/nbgl_use_case_nanos.o:(.text.streamingReviewCallback)
c0de9918 c0de9918        0     1                 $t.125
c0de9919 c0de9919       2c     1                 streamingReviewCallback
c0de9940 c0de9940        0     1                 $d.126
c0de9944 c0de9944       14     4         build/nanos2/obj/sdk/lib_nbgl/src/nbgl_use_case_nanos.o:(.text.onChoiceAccept)
c0de9944 c0de9944        0     1                 $t.127
c0de9945 c0de9945       14     1                 onChoiceAccept
c0de9954 c0de9954        0     1                 $d.128
c0de9958 c0de9958       14     4         build/nanos2/obj/sdk/lib_nbgl/src/nbgl_use_case_nanos.o:(.text.onChoiceReject)
c0de9958 c0de9958        0     1                 $t.129
c0de9959 c0de9959       14     1                 onChoiceReject
c0de9968 c0de9968        0     1                 $d.130
c0de996c c0de996c       1c     2         build/nanos2/obj/sdk/lib_nbgl/src/nbgl_use_case_nanos.o:(.text.genericChoiceCallback)
c0de996c c0de996c        0     1                 $t.131
c0de996d c0de996d       1c     1                 genericChoiceCallback
c0de9988 c0de9988       14     2         build/nanos2/obj/sdk/lib_nbgl/src/nbgl_use_case_nanos.o:(.text.OUTLINED_FUNCTION_0)
c0de9988 c0de9988        0     1                 $t.137
c0de9989 c0de9989       14     1                 OUTLINED_FUNCTION_0
c0de999c c0de999c       16     2         build/nanos2/obj/sdk/lib_nbgl/src/nbgl_use_case_nanos.o:(.text.OUTLINED_FUNCTION_2)
c0de999c c0de999c        0     1                 $t.139
c0de999d c0de999d       16     1                 OUTLINED_FUNCTION_2
c0de99b2 c0de99b2        8     2         build/nanos2/obj/sdk/lib_nbgl/src/nbgl_use_case_nanos.o:(.text.OUTLINED_FUNCTION_4)
c0de99b2 c0de99b2        0     1                 $t.141
c0de99b3 c0de99b3        8     1                 OUTLINED_FUNCTION_4
c0de99ba c0de99ba        c     2         build/nanos2/obj/sdk/lib_nbgl/src/nbgl_use_case_nanos.o:(.text.OUTLINED_FUNCTION_5)
c0de99ba c0de99ba        0     1                 $t.142
c0de99bb c0de99bb        c     1                 OUTLINED_FUNCTION_5
c0de99c6 c0de99c6        6     2         build/nanos2/obj/sdk/lib_nbgl/src/nbgl_use_case_nanos.o:(.text.OUTLINED_FUNCTION_6)
c0de99c6 c0de99c6        0     1                 $t.143
c0de99c7 c0de99c7        6     1                 OUTLINED_FUNCTION_6
c0de99cc c0de99cc        8     2         build/nanos2/obj/sdk/lib_nbgl/src/nbgl_use_case_nanos.o:(.text.OUTLINED_FUNCTION_7)
c0de99cc c0de99cc        0     1                 $t.144
c0de99cd c0de99cd        8     1                 OUTLINED_FUNCTION_7
c0de99d4 c0de99d4        a     2         build/nanos2/obj/sdk/lib_nbgl/src/nbgl_use_case_nanos.o:(.text.OUTLINED_FUNCTION_8)
c0de99d4 c0de99d4        0     1                 $t.145
c0de99d5 c0de99d5        a     1                 OUTLINED_FUNCTION_8
c0de99de c0de99de        a     2         build/nanos2/obj/sdk/lib_nbgl/src/nbgl_use_case_nanos.o:(.text.OUTLINED_FUNCTION_9)
c0de99de c0de99de        0     1                 $t.146
c0de99df c0de99df        a     1                 OUTLINED_FUNCTION_9
c0de99e8 c0de99e8       4e     2         build/nanos2/obj/sdk/lib_standard_app/bip32.o:(.text.bip32_path_read)
c0de99e8 c0de99e8        0     1                 $t.0
c0de99e9 c0de99e9       4e     1                 bip32_path_read
c0de9a36 c0de9a36       16     2         build/nanos2/obj/sdk/lib_standard_app/buffer.o:(.text.buffer_seek_cur)
c0de9a36 c0de9a36        0     1                 $t.2
c0de9a37 c0de9a37       16     1                 buffer_seek_cur
c0de9a4c c0de9a4c       2c     2         build/nanos2/obj/sdk/lib_standard_app/buffer.o:(.text.buffer_read_u8)
c0de9a4c c0de9a4c        0     1                 $t.4
c0de9a4d c0de9a4d       2c     1                 buffer_read_u8
c0de9a78 c0de9a78       40     2         build/nanos2/obj/sdk/lib_standard_app/buffer.o:(.text.buffer_read_u64)
c0de9a78 c0de9a78        0     1                 $t.7
c0de9a79 c0de9a79       40     1                 buffer_read_u64
c0de9ab8 c0de9ab8       3a     2         build/nanos2/obj/sdk/lib_standard_app/buffer.o:(.text.buffer_read_varint)
c0de9ab8 c0de9ab8        0     1                 $t.8
c0de9ab9 c0de9ab9       3a     1                 buffer_read_varint
c0de9af2 c0de9af2       2e     2         build/nanos2/obj/sdk/lib_standard_app/buffer.o:(.text.buffer_read_bip32_path)
c0de9af2 c0de9af2        0     1                 $t.9
c0de9af3 c0de9af3       2e     1                 buffer_read_bip32_path
c0de9b20 c0de9b20       26     2         build/nanos2/obj/sdk/lib_standard_app/buffer.o:(.text.buffer_copy)
c0de9b20 c0de9b20        0     1                 $t.10
c0de9b21 c0de9b21       26     1                 buffer_copy
c0de9b46 c0de9b46       32     2         build/nanos2/obj/sdk/lib_standard_app/buffer.o:(.text.buffer_move)
c0de9b46 c0de9b46        0     1                 $t.11
c0de9b47 c0de9b47       32     1                 buffer_move
c0de9b78 c0de9b78        c     2         build/nanos2/obj/sdk/lib_standard_app/buffer.o:(.text.OUTLINED_FUNCTION_0)
c0de9b78 c0de9b78        0     1                 $t.12
c0de9b79 c0de9b79        c     1                 OUTLINED_FUNCTION_0
c0de9b84 c0de9b84       70     2         build/nanos2/obj/sdk/lib_standard_app/crypto_helpers.o:(.text.bip32_derive_with_seed_init_privkey_256)
c0de9b84 c0de9b84        0     1                 $t.0
c0de9b85 c0de9b85       70     1                 bip32_derive_with_seed_init_privkey_256
c0de9bf4 c0de9bf4       80     2         build/nanos2/obj/sdk/lib_standard_app/crypto_helpers.o:(.text.os_derive_bip32_with_seed_no_throw)
c0de9bf4 c0de9bf4        0     1                 $t.1
c0de9bf5 c0de9bf5       80     1                 os_derive_bip32_with_seed_no_throw
c0de9c74 c0de9c74       68     2         build/nanos2/obj/sdk/lib_standard_app/crypto_helpers.o:(.text.bip32_derive_with_seed_get_pubkey_256)
c0de9c74 c0de9c74        0     1                 $t.2
c0de9c75 c0de9c75       68     1                 bip32_derive_with_seed_get_pubkey_256
c0de9cdc c0de9cdc       4e     2         build/nanos2/obj/sdk/lib_standard_app/crypto_helpers.o:(.text.bip32_derive_with_seed_ecdsa_sign_hash_256)
c0de9cdc c0de9cdc        0     1                 $t.3
c0de9cdd c0de9cdd       4e     1                 bip32_derive_with_seed_ecdsa_sign_hash_256
c0de9d2a c0de9d2a        6     2         build/nanos2/obj/sdk/lib_standard_app/crypto_helpers.o:(.text.OUTLINED_FUNCTION_0)
c0de9d2a c0de9d2a        0     1                 $t.6
c0de9d2b c0de9d2b        6     1                 OUTLINED_FUNCTION_0
c0de9d30 c0de9d30       72     2         build/nanos2/obj/sdk/lib_standard_app/format.o:(.text.format_u64)
c0de9d30 c0de9d30        0     1                 $t.2
c0de9d31 c0de9d31       72     1                 format_u64
c0de9da2 c0de9da2       8e     2         build/nanos2/obj/sdk/lib_standard_app/format.o:(.text.format_fpu64)
c0de9da2 c0de9da2        0     1                 $t.3
c0de9da3 c0de9da3       8e     1                 format_fpu64
c0de9e30 c0de9e30       50     4         build/nanos2/obj/sdk/lib_standard_app/format.o:(.text.format_hex)
c0de9e30 c0de9e30        0     1                 $t.5
c0de9e31 c0de9e31       50     1                 format_hex
c0de9e7c c0de9e7c        0     1                 $d.6
c0de9e80 c0de9e80        2     2         build/nanos2/obj/sdk/lib_standard_app/io.o:(.text.app_ticker_event_callback)
c0de9e80 c0de9e80        0     1                 $t.0
c0de9e81 c0de9e81        2     1                 app_ticker_event_callback
c0de9e84 c0de9e84       60     4         build/nanos2/obj/sdk/lib_standard_app/io.o:(.text.io_event)
c0de9e84 c0de9e84        0     1                 $t.1
c0de9e85 c0de9e85       60     1                 io_event
c0de9edc c0de9edc        0     1                 $d.2
c0de9ee4 c0de9ee4       40     4         build/nanos2/obj/sdk/lib_standard_app/io.o:(.text.io_exchange_al)
c0de9ee4 c0de9ee4        0     1                 $t.3
c0de9ee5 c0de9ee5       40     1                 io_exchange_al
c0de9f20 c0de9f20        0     1                 $d.4
c0de9f24 c0de9f24       14     4         build/nanos2/obj/sdk/lib_standard_app/io.o:(.text.io_init)
c0de9f24 c0de9f24        0     1                 $t.5
c0de9f25 c0de9f25       14     1                 io_init
c0de9f34 c0de9f34        0     1                 $d.6
c0de9f38 c0de9f38       3c     4         build/nanos2/obj/sdk/lib_standard_app/io.o:(.text.io_recv_command)
c0de9f38 c0de9f38        0     1                 $t.7
c0de9f39 c0de9f39       3c     1                 io_recv_command
c0de9f70 c0de9f70        0     1                 $d.8
c0de9f74 c0de9f74       9c     4         build/nanos2/obj/sdk/lib_standard_app/io.o:(.text.io_send_response_buffers)
c0de9f74 c0de9f74        0     1                 $t.9
c0de9f75 c0de9f75       9c     1                 io_send_response_buffers
c0dea008 c0dea008        0     1                 $d.10
c0dea010 c0dea010        6     2         build/nanos2/obj/sdk/lib_standard_app/main.o:(.text.app_exit)
c0dea010 c0dea010        0     1                 $t.0
c0dea011 c0dea011        6     1                 app_exit
c0dea016 c0dea016       1a     2         build/nanos2/obj/sdk/lib_standard_app/main.o:(.text.common_app_init)
c0dea016 c0dea016        0     1                 $t.1
c0dea017 c0dea017       1a     1                 common_app_init
c0dea030 c0dea030       4e     2         build/nanos2/obj/sdk/lib_standard_app/main.o:(.text.standalone_app_main)
c0dea030 c0dea030        0     1                 $t.2
c0dea031 c0dea031       4e     1                 standalone_app_main
c0dea07e c0dea07e       36     2         build/nanos2/obj/sdk/lib_standard_app/parser.o:(.text.apdu_parser)
c0dea07e c0dea07e        0     1                 $t.0
c0dea07f c0dea07f       36     1                 apdu_parser
c0dea0b4 c0dea0b4       18     2         build/nanos2/obj/sdk/lib_standard_app/read.o:(.text.read_u32_be)
c0dea0b4 c0dea0b4        0     1                 $t.1
c0dea0b5 c0dea0b5       18     1                 read_u32_be
c0dea0cc c0dea0cc       30     2         build/nanos2/obj/sdk/lib_standard_app/read.o:(.text.read_u64_be)
c0dea0cc c0dea0cc        0     1                 $t.2
c0dea0cd c0dea0cd       30     1                 read_u64_be
c0dea0fc c0dea0fc        e     2         build/nanos2/obj/sdk/lib_standard_app/read.o:(.text.read_u16_le)
c0dea0fc c0dea0fc        0     1                 $t.3
c0dea0fd c0dea0fd        e     1                 read_u16_le
c0dea10a c0dea10a       18     2         build/nanos2/obj/sdk/lib_standard_app/read.o:(.text.read_u32_le)
c0dea10a c0dea10a        0     1                 $t.4
c0dea10b c0dea10b       18     1                 read_u32_le
c0dea122 c0dea122       2e     2         build/nanos2/obj/sdk/lib_standard_app/read.o:(.text.read_u64_le)
c0dea122 c0dea122        0     1                 $t.5
c0dea123 c0dea123       2e     1                 read_u64_le
c0dea150 c0dea150       5c     2         build/nanos2/obj/sdk/lib_standard_app/varint.o:(.text.varint_read)
c0dea150 c0dea150        0     1                 $t.1
c0dea151 c0dea151       5c     1                 varint_read
c0dea1ac c0dea1ac        a     2         build/nanos2/obj/sdk/lib_standard_app/write.o:(.text.write_u16_be)
c0dea1ac c0dea1ac        0     1                 $t.0
c0dea1ad c0dea1ad        a     1                 write_u16_be
c0dea1b6 c0dea1b6       98     2         build/nanos2/obj/sdk/lib_stusb/STM32_USB_Device_Library/Class/HID/Src/usbd_hid.o:(.text.USBD_HID_Setup)
c0dea1b6 c0dea1b6        0     1                 $t.0
c0dea1b7 c0dea1b7       98     1                 USBD_HID_Setup
c0dea24e c0dea24e       28     2         build/nanos2/obj/sdk/lib_stusb/STM32_USB_Device_Library/Class/HID/Src/usbd_hid.o:(.text.USBD_HID_Init)
c0dea24e c0dea24e        0     1                 $t.1
c0dea24f c0dea24f       28     1                 USBD_HID_Init
c0dea276 c0dea276        4     2         build/nanos2/obj/sdk/lib_stusb/STM32_USB_Device_Library/Class/HID/Src/usbd_hid.o:(.text.USBD_HID_DeInit)
c0dea276 c0dea276        0     1                 $t.2
c0dea277 c0dea277        4     1                 USBD_HID_DeInit
c0dea27a c0dea27a       2c     2         build/nanos2/obj/sdk/lib_stusb/STM32_USB_Device_Library/Core/Src/usbd_core.o:(.text.USBD_Init)
c0dea27a c0dea27a        0     1                 $t.0
c0dea27b c0dea27b       2c     1                 USBD_Init
c0dea2a6 c0dea2a6       32     2         build/nanos2/obj/sdk/lib_stusb/STM32_USB_Device_Library/Core/Src/usbd_core.o:(.text.USBD_DeInit)
c0dea2a6 c0dea2a6        0     1                 $t.1
c0dea2a7 c0dea2a7       32     1                 USBD_DeInit
c0dea2d8 c0dea2d8       16     2         build/nanos2/obj/sdk/lib_stusb/STM32_USB_Device_Library/Core/Src/usbd_core.o:(.text.USBD_RegisterClassForInterface)
c0dea2d8 c0dea2d8        0     1                 $t.3
c0dea2d9 c0dea2d9       16     1                 USBD_RegisterClassForInterface
c0dea2ee c0dea2ee        a     2         build/nanos2/obj/sdk/lib_stusb/STM32_USB_Device_Library/Core/Src/usbd_core.o:(.text.USBD_Start)
c0dea2ee c0dea2ee        0     1                 $t.4
c0dea2ef c0dea2ef        a     1                 USBD_Start
c0dea2f8 c0dea2f8       34     2         build/nanos2/obj/sdk/lib_stusb/STM32_USB_Device_Library/Core/Src/usbd_core.o:(.text.USBD_SetClassConfig)
c0dea2f8 c0dea2f8        0     1                 $t.7
c0dea2f9 c0dea2f9       34     1                 USBD_SetClassConfig
c0dea32c c0dea32c       2e     2         build/nanos2/obj/sdk/lib_stusb/STM32_USB_Device_Library/Core/Src/usbd_core.o:(.text.USBD_ClrClassConfig)
c0dea32c c0dea32c        0     1                 $t.8
c0dea32d c0dea32d       2e     1                 USBD_ClrClassConfig
c0dea35a c0dea35a       56     2         build/nanos2/obj/sdk/lib_stusb/STM32_USB_Device_Library/Core/Src/usbd_core.o:(.text.USBD_LL_SetupStage)
c0dea35a c0dea35a        0     1                 $t.9
c0dea35b c0dea35b       56     1                 USBD_LL_SetupStage
c0dea3b0 c0dea3b0       9a     2         build/nanos2/obj/sdk/lib_stusb/STM32_USB_Device_Library/Core/Src/usbd_core.o:(.text.USBD_LL_DataOutStage)
c0dea3b0 c0dea3b0        0     1                 $t.10
c0dea3b1 c0dea3b1       9a     1                 USBD_LL_DataOutStage
c0dea44a c0dea44a       d4     2         build/nanos2/obj/sdk/lib_stusb/STM32_USB_Device_Library/Core/Src/usbd_core.o:(.text.USBD_LL_DataInStage)
c0dea44a c0dea44a        0     1                 $t.11
c0dea44b c0dea44b       d4     1                 USBD_LL_DataInStage
c0dea51e c0dea51e       30     2         build/nanos2/obj/sdk/lib_stusb/STM32_USB_Device_Library/Core/Src/usbd_core.o:(.text.USBD_LL_Reset)
c0dea51e c0dea51e        0     1                 $t.12
c0dea51f c0dea51f       30     1                 USBD_LL_Reset
c0dea54e c0dea54e        6     2         build/nanos2/obj/sdk/lib_stusb/STM32_USB_Device_Library/Core/Src/usbd_core.o:(.text.USBD_LL_SetSpeed)
c0dea54e c0dea54e        0     1                 $t.13
c0dea54f c0dea54f        6     1                 USBD_LL_SetSpeed
c0dea554 c0dea554        4     2         build/nanos2/obj/sdk/lib_stusb/STM32_USB_Device_Library/Core/Src/usbd_core.o:(.text.USBD_LL_Suspend)
c0dea554 c0dea554        0     1                 $t.14
c0dea555 c0dea555        4     1                 USBD_LL_Suspend
c0dea558 c0dea558        4     2         build/nanos2/obj/sdk/lib_stusb/STM32_USB_Device_Library/Core/Src/usbd_core.o:(.text.USBD_LL_Resume)
c0dea558 c0dea558        0     1                 $t.15
c0dea559 c0dea559        4     1                 USBD_LL_Resume
c0dea55c c0dea55c       32     2         build/nanos2/obj/sdk/lib_stusb/STM32_USB_Device_Library/Core/Src/usbd_core.o:(.text.USBD_LL_SOF)
c0dea55c c0dea55c        0     1                 $t.16
c0dea55d c0dea55d       32     1                 USBD_LL_SOF
c0dea58e c0dea58e        8     2         build/nanos2/obj/sdk/lib_stusb/STM32_USB_Device_Library/Core/Src/usbd_core.o:(.text.OUTLINED_FUNCTION_0)
c0dea58e c0dea58e        0     1                 $t.21
c0dea58f c0dea58f        8     1                 OUTLINED_FUNCTION_0
c0dea596 c0dea596        a     2         build/nanos2/obj/sdk/lib_stusb/STM32_USB_Device_Library/Core/Src/usbd_core.o:(.text.OUTLINED_FUNCTION_1)
c0dea596 c0dea596        0     1                 $t.22
c0dea597 c0dea597        a     1                 OUTLINED_FUNCTION_1
c0dea5a0 c0dea5a0        a     2         build/nanos2/obj/sdk/lib_stusb/STM32_USB_Device_Library/Core/Src/usbd_core.o:(.text.OUTLINED_FUNCTION_2)
c0dea5a0 c0dea5a0        0     1                 $t.23
c0dea5a1 c0dea5a1        a     1                 OUTLINED_FUNCTION_2
c0dea5aa c0dea5aa        8     2         build/nanos2/obj/sdk/lib_stusb/STM32_USB_Device_Library/Core/Src/usbd_core.o:(.text.OUTLINED_FUNCTION_3)
c0dea5aa c0dea5aa        0     1                 $t.24
c0dea5ab c0dea5ab        8     1                 OUTLINED_FUNCTION_3
c0dea5b2 c0dea5b2       18     2         build/nanos2/obj/sdk/lib_stusb/STM32_USB_Device_Library/Core/Src/usbd_ctlreq.o:(.text.usbd_is_valid_intf)
c0dea5b2 c0dea5b2        0     1                 $t.0
c0dea5b3 c0dea5b3       18     1                 usbd_is_valid_intf
c0dea5ca c0dea5ca       50     2         build/nanos2/obj/sdk/lib_stusb/STM32_USB_Device_Library/Core/Src/usbd_ctlreq.o:(.text.USBD_StdDevReq)
c0dea5ca c0dea5ca        0     1                 $t.1
c0dea5cb c0dea5cb       50     1                 USBD_StdDevReq
c0dea61a c0dea61a       f8     2         build/nanos2/obj/sdk/lib_stusb/STM32_USB_Device_Library/Core/Src/usbd_ctlreq.o:(.text.USBD_GetDescriptor)
c0dea61a c0dea61a        0     1                 $t.2
c0dea61b c0dea61b       f8     1                 USBD_GetDescriptor
c0dea712 c0dea712       42     2         build/nanos2/obj/sdk/lib_stusb/STM32_USB_Device_Library/Core/Src/usbd_ctlreq.o:(.text.USBD_SetAddress)
c0dea712 c0dea712        0     1                 $t.3
c0dea713 c0dea713       42     1                 USBD_SetAddress
c0dea754 c0dea754       70     2         build/nanos2/obj/sdk/lib_stusb/STM32_USB_Device_Library/Core/Src/usbd_ctlreq.o:(.text.USBD_SetConfig)
c0dea754 c0dea754        0     1                 $t.4
c0dea755 c0dea755       70     1                 USBD_SetConfig
c0dea7c4 c0dea7c4       28     2         build/nanos2/obj/sdk/lib_stusb/STM32_USB_Device_Library/Core/Src/usbd_ctlreq.o:(.text.USBD_GetConfig)
c0dea7c4 c0dea7c4        0     1                 $t.5
c0dea7c5 c0dea7c5       28     1                 USBD_GetConfig
c0dea7ec c0dea7ec       48     2         build/nanos2/obj/sdk/lib_stusb/STM32_USB_Device_Library/Core/Src/usbd_ctlreq.o:(.text.USBD_GetStatus)
c0dea7ec c0dea7ec        0     1                 $t.6
c0dea7ed c0dea7ed       48     1                 USBD_GetStatus
c0dea834 c0dea834       32     2         build/nanos2/obj/sdk/lib_stusb/STM32_USB_Device_Library/Core/Src/usbd_ctlreq.o:(.text.USBD_SetFeature)
c0dea834 c0dea834        0     1                 $t.7
c0dea835 c0dea835       32     1                 USBD_SetFeature
c0dea866 c0dea866       4a     2         build/nanos2/obj/sdk/lib_stusb/STM32_USB_Device_Library/Core/Src/usbd_ctlreq.o:(.text.USBD_ClrFeature)
c0dea866 c0dea866        0     1                 $t.8
c0dea867 c0dea867       4a     1                 USBD_ClrFeature
c0dea8b0 c0dea8b0       38     2         build/nanos2/obj/sdk/lib_stusb/STM32_USB_Device_Library/Core/Src/usbd_ctlreq.o:(.text.USBD_StdItfReq)
c0dea8b0 c0dea8b0        0     1                 $t.10
c0dea8b1 c0dea8b1       38     1                 USBD_StdItfReq
c0dea8e8 c0dea8e8       e6     2         build/nanos2/obj/sdk/lib_stusb/STM32_USB_Device_Library/Core/Src/usbd_ctlreq.o:(.text.USBD_StdEPReq)
c0dea8e8 c0dea8e8        0     1                 $t.11
c0dea8e9 c0dea8e9       e6     1                 USBD_StdEPReq
c0dea9ce c0dea9ce       28     2         build/nanos2/obj/sdk/lib_stusb/STM32_USB_Device_Library/Core/Src/usbd_ctlreq.o:(.text.USBD_ParseSetupRequest)
c0dea9ce c0dea9ce        0     1                 $t.12
c0dea9cf c0dea9cf       28     1                 USBD_ParseSetupRequest
c0dea9f6 c0dea9f6       16     2         build/nanos2/obj/sdk/lib_stusb/STM32_USB_Device_Library/Core/Src/usbd_ctlreq.o:(.text.USBD_CtlStall)
c0dea9f6 c0dea9f6        0     1                 $t.13
c0dea9f7 c0dea9f7       16     1                 USBD_CtlStall
c0deaa0c c0deaa0c        8     2         build/nanos2/obj/sdk/lib_stusb/STM32_USB_Device_Library/Core/Src/usbd_ctlreq.o:(.text.OUTLINED_FUNCTION_0)
c0deaa0c c0deaa0c        0     1                 $t.16
c0deaa0d c0deaa0d        8     1                 OUTLINED_FUNCTION_0
c0deaa14 c0deaa14        c     2         build/nanos2/obj/sdk/lib_stusb/STM32_USB_Device_Library/Core/Src/usbd_ctlreq.o:(.text.OUTLINED_FUNCTION_1)
c0deaa14 c0deaa14        0     1                 $t.17
c0deaa15 c0deaa15        c     1                 OUTLINED_FUNCTION_1
c0deaa20 c0deaa20        6     2         build/nanos2/obj/sdk/lib_stusb/STM32_USB_Device_Library/Core/Src/usbd_ctlreq.o:(.text.OUTLINED_FUNCTION_2)
c0deaa20 c0deaa20        0     1                 $t.18
c0deaa21 c0deaa21        6     1                 OUTLINED_FUNCTION_2
c0deaa26 c0deaa26        6     2         build/nanos2/obj/sdk/lib_stusb/STM32_USB_Device_Library/Core/Src/usbd_ctlreq.o:(.text.OUTLINED_FUNCTION_3)
c0deaa26 c0deaa26        0     1                 $t.19
c0deaa27 c0deaa27        6     1                 OUTLINED_FUNCTION_3
c0deaa2c c0deaa2c       22     2         build/nanos2/obj/sdk/lib_stusb/STM32_USB_Device_Library/Core/Src/usbd_ioreq.o:(.text.USBD_CtlSendData)
c0deaa2c c0deaa2c        0     1                 $t.0
c0deaa2d c0deaa2d       22     1                 USBD_CtlSendData
c0deaa4e c0deaa4e       14     2         build/nanos2/obj/sdk/lib_stusb/STM32_USB_Device_Library/Core/Src/usbd_ioreq.o:(.text.USBD_CtlContinueSendData)
c0deaa4e c0deaa4e        0     1                 $t.1
c0deaa4f c0deaa4f       14     1                 USBD_CtlContinueSendData
c0deaa62 c0deaa62        c     2         build/nanos2/obj/sdk/lib_stusb/STM32_USB_Device_Library/Core/Src/usbd_ioreq.o:(.text.USBD_CtlContinueRx)
c0deaa62 c0deaa62        0     1                 $t.3
c0deaa63 c0deaa63        c     1                 USBD_CtlContinueRx
c0deaa6e c0deaa6e       16     2         build/nanos2/obj/sdk/lib_stusb/STM32_USB_Device_Library/Core/Src/usbd_ioreq.o:(.text.USBD_CtlSendStatus)
c0deaa6e c0deaa6e        0     1                 $t.4
c0deaa6f c0deaa6f       16     1                 USBD_CtlSendStatus
c0deaa84 c0deaa84        e     2         build/nanos2/obj/sdk/lib_stusb/STM32_USB_Device_Library/Core/Src/usbd_ioreq.o:(.text.USBD_CtlReceiveStatus)
c0deaa84 c0deaa84        0     1                 $t.5
c0deaa85 c0deaa85        e     1                 USBD_CtlReceiveStatus
c0deaa92 c0deaa92        a     2         build/nanos2/obj/sdk/lib_stusb/STM32_USB_Device_Library/Core/Src/usbd_ioreq.o:(.text.OUTLINED_FUNCTION_0)
c0deaa92 c0deaa92        0     1                 $t.6
c0deaa93 c0deaa93        a     1                 OUTLINED_FUNCTION_0
c0deaa9c c0deaa9c        a     2         build/nanos2/obj/sdk/lib_stusb/STM32_USB_Device_Library/Core/Src/usbd_ioreq.o:(.text.OUTLINED_FUNCTION_1)
c0deaa9c c0deaa9c        0     1                 $t.7
c0deaa9d c0deaa9d        a     1                 OUTLINED_FUNCTION_1
c0deaaa8 c0deaaa8       1c     4         build/nanos2/obj/sdk/lib_stusb/usbd_conf.o:(.text.USBD_LL_Init)
c0deaaa8 c0deaaa8        0     1                 $t.0
c0deaaa9 c0deaaa9       1c     1                 USBD_LL_Init
c0deaabc c0deaabc        0     1                 $d.1
c0deaac4 c0deaac4       10     2         build/nanos2/obj/sdk/lib_stusb/usbd_conf.o:(.text.USBD_LL_DeInit)
c0deaac4 c0deaac4        0     1                 $t.2
c0deaac5 c0deaac5       10     1                 USBD_LL_DeInit
c0deaad4 c0deaad4       3c     2         build/nanos2/obj/sdk/lib_stusb/usbd_conf.o:(.text.USBD_LL_Start)
c0deaad4 c0deaad4        0     1                 $t.3
c0deaad5 c0deaad5       3c     1                 USBD_LL_Start
c0deab10 c0deab10       10     2         build/nanos2/obj/sdk/lib_stusb/usbd_conf.o:(.text.USBD_LL_Stop)
c0deab10 c0deab10        0     1                 $t.4
c0deab11 c0deab11       10     1                 USBD_LL_Stop
c0deab20 c0deab20       68     4         build/nanos2/obj/sdk/lib_stusb/usbd_conf.o:(.text.USBD_LL_OpenEP)
c0deab20 c0deab20        0     1                 $t.5
c0deab21 c0deab21       68     1                 USBD_LL_OpenEP
c0deab80 c0deab80        0     1                 $d.6
c0deab88 c0deab88       40     4         build/nanos2/obj/sdk/lib_stusb/usbd_conf.o:(.text.USBD_LL_StallEP)
c0deab88 c0deab88        0     1                 $t.9
c0deab89 c0deab89       40     1                 USBD_LL_StallEP
c0deabc0 c0deabc0        0     1                 $d.10
c0deabc8 c0deabc8       40     4         build/nanos2/obj/sdk/lib_stusb/usbd_conf.o:(.text.USBD_LL_ClearStallEP)
c0deabc8 c0deabc8        0     1                 $t.11
c0deabc9 c0deabc9       40     1                 USBD_LL_ClearStallEP
c0deac00 c0deac00        0     1                 $d.12
c0deac08 c0deac08       28     4         build/nanos2/obj/sdk/lib_stusb/usbd_conf.o:(.text.USBD_LL_IsStallEP)
c0deac08 c0deac08        0     1                 $t.13
c0deac09 c0deac09       28     1                 USBD_LL_IsStallEP
c0deac28 c0deac28        0     1                 $d.14
c0deac30 c0deac30       2c     2         build/nanos2/obj/sdk/lib_stusb/usbd_conf.o:(.text.USBD_LL_SetUSBAddress)
c0deac30 c0deac30        0     1                 $t.15
c0deac31 c0deac31       2c     1                 USBD_LL_SetUSBAddress
c0deac5c c0deac5c       3c     2         build/nanos2/obj/sdk/lib_stusb/usbd_conf.o:(.text.USBD_LL_Transmit)
c0deac5c c0deac5c        0     1                 $t.16
c0deac5d c0deac5d       3c     1                 USBD_LL_Transmit
c0deac98 c0deac98       30     2         build/nanos2/obj/sdk/lib_stusb/usbd_conf.o:(.text.USBD_LL_PrepareReceive)
c0deac98 c0deac98        0     1                 $t.17
c0deac99 c0deac99       30     1                 USBD_LL_PrepareReceive
c0deacc8 c0deacc8       1e     2         build/nanos2/obj/sdk/lib_stusb/usbd_conf.o:(.text.OUTLINED_FUNCTION_0)
c0deacc8 c0deacc8        0     1                 $t.18
c0deacc9 c0deacc9       1e     1                 OUTLINED_FUNCTION_0
c0deace6 c0deace6       1c     2         build/nanos2/obj/sdk/lib_stusb/usbd_conf.o:(.text.OUTLINED_FUNCTION_1)
c0deace6 c0deace6        0     1                 $t.19
c0deace7 c0deace7       1c     1                 OUTLINED_FUNCTION_1
c0dead02 c0dead02        a     2         build/nanos2/obj/sdk/lib_stusb/usbd_conf.o:(.text.OUTLINED_FUNCTION_2)
c0dead02 c0dead02        0     1                 $t.20
c0dead03 c0dead03        a     1                 OUTLINED_FUNCTION_2
c0dead0c c0dead0c       28     4         build/nanos2/obj/sdk/lib_stusb_impl/usbd_impl.o:(.text.USBD_HID_GetHidDescriptor_impl)
c0dead0c c0dead0c        0     1                 $t.0
c0dead0d c0dead0d       28     1                 USBD_HID_GetHidDescriptor_impl
c0dead2c c0dead2c        0     1                 $d.1
c0dead34 c0dead34       28     4         build/nanos2/obj/sdk/lib_stusb_impl/usbd_impl.o:(.text.USBD_HID_GetReportDescriptor_impl)
c0dead34 c0dead34        0     1                 $t.2
c0dead35 c0dead35       28     1                 USBD_HID_GetReportDescriptor_impl
c0dead54 c0dead54        0     1                 $d.3
c0dead5c c0dead5c       1c     4         build/nanos2/obj/sdk/lib_stusb_impl/usbd_impl.o:(.text.USBD_HID_DataIn_impl)
c0dead5c c0dead5c        0     1                 $t.4
c0dead5d c0dead5d       1c     1                 USBD_HID_DataIn_impl
c0dead74 c0dead74        0     1                 $d.5
c0dead78 c0dead78       5c     4         build/nanos2/obj/sdk/lib_stusb_impl/usbd_impl.o:(.text.USBD_HID_DataOut_impl)
c0dead78 c0dead78        0     1                 $t.6
c0dead79 c0dead79       5c     1                 USBD_HID_DataOut_impl
c0deadc8 c0deadc8        0     1                 $d.7
c0deadd4 c0deadd4       28     2         build/nanos2/obj/sdk/lib_stusb_impl/usbd_impl.o:(.text.USBD_WEBUSB_Init)
c0deadd4 c0deadd4        0     1                 $t.8
c0deadd5 c0deadd5       28     1                 USBD_WEBUSB_Init
c0deadfc c0deadfc        4     2         build/nanos2/obj/sdk/lib_stusb_impl/usbd_impl.o:(.text.USBD_WEBUSB_DeInit)
c0deadfc c0deadfc        0     1                 $t.9
c0deadfd c0deadfd        4     1                 USBD_WEBUSB_DeInit
c0deae00 c0deae00        4     2         build/nanos2/obj/sdk/lib_stusb_impl/usbd_impl.o:(.text.USBD_WEBUSB_Setup)
c0deae00 c0deae00        0     1                 $t.10
c0deae01 c0deae01        4     1                 USBD_WEBUSB_Setup
c0deae04 c0deae04       1c     4         build/nanos2/obj/sdk/lib_stusb_impl/usbd_impl.o:(.text.USBD_WEBUSB_DataIn)
c0deae04 c0deae04        0     1                 $t.11
c0deae05 c0deae05       1c     1                 USBD_WEBUSB_DataIn
c0deae1c c0deae1c        0     1                 $d.12
c0deae20 c0deae20       5c     4         build/nanos2/obj/sdk/lib_stusb_impl/usbd_impl.o:(.text.USBD_WEBUSB_DataOut)
c0deae20 c0deae20        0     1                 $t.13
c0deae21 c0deae21       5c     1                 USBD_WEBUSB_DataOut
c0deae70 c0deae70        0     1                 $d.14
c0deae7c c0deae7c       10     4         build/nanos2/obj/sdk/lib_stusb_impl/usbd_impl.o:(.text.USBD_DeviceDescriptor)
c0deae7c c0deae7c        0     1                 $t.15
c0deae7d c0deae7d       10     1                 USBD_DeviceDescriptor
c0deae88 c0deae88        0     1                 $d.16
c0deae8c c0deae8c       10     4         build/nanos2/obj/sdk/lib_stusb_impl/usbd_impl.o:(.text.USBD_LangIDStrDescriptor)
c0deae8c c0deae8c        0     1                 $t.17
c0deae8d c0deae8d       10     1                 USBD_LangIDStrDescriptor
c0deae98 c0deae98        0     1                 $d.18
c0deae9c c0deae9c       10     4         build/nanos2/obj/sdk/lib_stusb_impl/usbd_impl.o:(.text.USBD_ManufacturerStrDescriptor)
c0deae9c c0deae9c        0     1                 $t.19
c0deae9d c0deae9d       10     1                 USBD_ManufacturerStrDescriptor
c0deaea8 c0deaea8        0     1                 $d.20
c0deaeac c0deaeac       10     4         build/nanos2/obj/sdk/lib_stusb_impl/usbd_impl.o:(.text.USBD_ProductStrDescriptor)
c0deaeac c0deaeac        0     1                 $t.21
c0deaead c0deaead       10     1                 USBD_ProductStrDescriptor
c0deaeb8 c0deaeb8        0     1                 $d.22
c0deaebc c0deaebc       10     4         build/nanos2/obj/sdk/lib_stusb_impl/usbd_impl.o:(.text.USBD_SerialStrDescriptor)
c0deaebc c0deaebc        0     1                 $t.23
c0deaebd c0deaebd       10     1                 USBD_SerialStrDescriptor
c0deaec8 c0deaec8        0     1                 $d.24
c0deaecc c0deaecc       10     4         build/nanos2/obj/sdk/lib_stusb_impl/usbd_impl.o:(.text.USBD_ConfigStrDescriptor)
c0deaecc c0deaecc        0     1                 $t.25
c0deaecd c0deaecd       10     1                 USBD_ConfigStrDescriptor
c0deaed8 c0deaed8        0     1                 $d.26
c0deaedc c0deaedc       10     4         build/nanos2/obj/sdk/lib_stusb_impl/usbd_impl.o:(.text.USBD_InterfaceStrDescriptor)
c0deaedc c0deaedc        0     1                 $t.27
c0deaedd c0deaedd       10     1                 USBD_InterfaceStrDescriptor
c0deaee8 c0deaee8        0     1                 $d.28
c0deaeec c0deaeec       10     4         build/nanos2/obj/sdk/lib_stusb_impl/usbd_impl.o:(.text.USBD_BOSDescriptor)
c0deaeec c0deaeec        0     1                 $t.29
c0deaeed c0deaeed       10     1                 USBD_BOSDescriptor
c0deaef8 c0deaef8        0     1                 $d.30
c0deaefc c0deaefc       88     4         build/nanos2/obj/sdk/lib_stusb_impl/usbd_impl.o:(.text.USBD_CtlError)
c0deaefc c0deaefc        0     1                 $t.31
c0deaefd c0deaefd       88     1                 USBD_CtlError
c0deaf74 c0deaf74        0     1                 $d.32
c0deaf84 c0deaf84       70     4         build/nanos2/obj/sdk/lib_stusb_impl/usbd_impl.o:(.text.USB_power)
c0deaf84 c0deaf84        0     1                 $t.33
c0deaf85 c0deaf85       70     1                 USB_power
c0deafe0 c0deafe0        0     1                 $d.34
c0deaff4 c0deaff4       10     4         build/nanos2/obj/sdk/lib_stusb_impl/usbd_impl.o:(.text.USBD_GetCfgDesc_impl)
c0deaff4 c0deaff4        0     1                 $t.35
c0deaff5 c0deaff5       10     1                 USBD_GetCfgDesc_impl
c0deb000 c0deb000        0     1                 $d.36
c0deb004 c0deb004       10     4         build/nanos2/obj/sdk/lib_stusb_impl/usbd_impl.o:(.text.USBD_GetDeviceQualifierDesc_impl)
c0deb004 c0deb004        0     1                 $t.37
c0deb005 c0deb005       10     1                 USBD_GetDeviceQualifierDesc_impl
c0deb010 c0deb010        0     1                 $d.38
c0deb014 c0deb014       34     4         build/nanos2/obj/sdk/lib_ux_nbgl/ux.o:(.text.ux_process_button_event)
c0deb014 c0deb014        0     1                 $t.0
c0deb015 c0deb015       34     1                 ux_process_button_event
c0deb044 c0deb044        0     1                 $d.1
c0deb048 c0deb048       54     4         build/nanos2/obj/sdk/lib_ux_nbgl/ux.o:(.text.ux_forward_event)
c0deb048 c0deb048        0     1                 $t.2
c0deb049 c0deb049       54     1                 ux_forward_event
c0deb098 c0deb098        0     1                 $d.3
c0deb09c c0deb09c       30     4         build/nanos2/obj/sdk/lib_ux_nbgl/ux.o:(.text.ux_process_ticker_event)
c0deb09c c0deb09c        0     1                 $t.4
c0deb09d c0deb09d       30     1                 ux_process_ticker_event
c0deb0c8 c0deb0c8        0     1                 $d.5
c0deb0cc c0deb0cc        6     2         build/nanos2/obj/sdk/lib_ux_nbgl/ux.o:(.text.ux_process_default_event)
c0deb0cc c0deb0cc        0     1                 $t.6
c0deb0cd c0deb0cd        6     1                 ux_process_default_event
c0deb0d2 c0deb0d2       4e     2         build/nanos2/obj/sdk/src/cx_hash_iovec.o:(.text.hash_iovec_ex)
c0deb0d2 c0deb0d2        0     1                 $t.7
c0deb0d3 c0deb0d3       4e     1                 hash_iovec_ex
c0deb120 c0deb120       1a     2         build/nanos2/obj/sdk/src/cx_hash_iovec.o:(.text.cx_keccak_256_hash_iovec)
c0deb120 c0deb120        0     1                 $t.12
c0deb121 c0deb121       1a     1                 cx_keccak_256_hash_iovec
c0deb13a c0deb13a        a     1         build/nanos2/obj/sdk/src/cx_stubs.o:(.text.cx_ecdsa_sign_no_throw)
c0deb13a c0deb13a        0     1                 $t.44
c0deb13b c0deb13b        0     1                 cx_ecdsa_sign_no_throw
c0deb144 c0deb144        a     1         build/nanos2/obj/sdk/src/cx_stubs.o:(.text.cx_ecfp_generate_pair2_no_throw)
c0deb144 c0deb144        0     1                 $t.49
c0deb145 c0deb145        0     1                 cx_ecfp_generate_pair2_no_throw
c0deb14e c0deb14e        a     1         build/nanos2/obj/sdk/src/cx_stubs.o:(.text.cx_ecfp_init_private_key_no_throw)
c0deb14e c0deb14e        0     1                 $t.51
c0deb14f c0deb14f        0     1                 cx_ecfp_init_private_key_no_throw
c0deb158 c0deb158        a     1         build/nanos2/obj/sdk/src/cx_stubs.o:(.text.cx_hash_final)
c0deb158 c0deb158        0     1                 $t.63
c0deb159 c0deb159        0     1                 cx_hash_final
c0deb162 c0deb162        a     1         build/nanos2/obj/sdk/src/cx_stubs.o:(.text.cx_hash_init_ex)
c0deb162 c0deb162        0     1                 $t.67
c0deb163 c0deb163        0     1                 cx_hash_init_ex
c0deb16c c0deb16c        a     1         build/nanos2/obj/sdk/src/cx_stubs.o:(.text.cx_hash_update)
c0deb16c c0deb16c        0     1                 $t.72
c0deb16d c0deb16d        0     1                 cx_hash_update
c0deb176 c0deb176        a     1         build/nanos2/obj/sdk/src/cx_stubs.o:(.text.cx_rng_no_throw)
c0deb176 c0deb176        0     1                 $t.106
c0deb177 c0deb177        0     1                 cx_rng_no_throw
c0deb180 c0deb180       10     4         build/nanos2/obj/sdk/src/cx_stubs.o:(.text.cx_aes_siv_reset)
c0deb180 c0deb180        0     1                 $t.144
c0deb181 c0deb181        0     1                 cx_aes_siv_reset
c0deb189 c0deb189        0     1                 cx_trampoline_helper
c0deb18c c0deb18c        0     1                 $d.145
c0deb190 c0deb190        6     2         build/nanos2/obj/sdk/src/ledger_assert.o:(.text.assert_exit)
c0deb190 c0deb190        0     1                 $t.0
c0deb191 c0deb191        6     1                 assert_exit
c0deb196 c0deb196        6     2         build/nanos2/obj/sdk/src/os.o:(.text.os_boot)
c0deb196 c0deb196        0     1                 $t.0
c0deb197 c0deb197        6     1                 os_boot
c0deb19c c0deb19c        c     2         build/nanos2/obj/sdk/src/os.o:(.text.os_longjmp)
c0deb19c c0deb19c        0     1                 $t.3
c0deb19d c0deb19d        c     1                 os_longjmp
c0deb1a8 c0deb1a8       10     4         build/nanos2/obj/sdk/src/os_io_seproxyhal.o:(.text.io_seproxyhal_general_status)
c0deb1a8 c0deb1a8        0     1                 $t.0
c0deb1a9 c0deb1a9       10     1                 io_seproxyhal_general_status
c0deb1b4 c0deb1b4        0     1                 $d.1
c0deb1b8 c0deb1b8       78     4         build/nanos2/obj/sdk/src/os_io_seproxyhal.o:(.text.io_seproxyhal_handle_usb_event)
c0deb1b8 c0deb1b8        0     1                 $t.4
c0deb1b9 c0deb1b9       78     1                 io_seproxyhal_handle_usb_event
c0deb224 c0deb224        0     1                 $d.5
c0deb230 c0deb230       78     4         build/nanos2/obj/sdk/src/os_io_seproxyhal.o:(.text.io_seproxyhal_handle_usb_ep_xfer_event)
c0deb230 c0deb230        0     1                 $t.6
c0deb231 c0deb231       78     1                 io_seproxyhal_handle_usb_ep_xfer_event
c0deb29c c0deb29c        0     1                 $d.7
c0deb2a8 c0deb2a8        c     2         build/nanos2/obj/sdk/src/os_io_seproxyhal.o:(.text.io_usb_send_apdu_data_ep0x83)
c0deb2a8 c0deb2a8        0     1                 $t.8
c0deb2a9 c0deb2a9        c     1                 io_usb_send_apdu_data_ep0x83
c0deb2b4 c0deb2b4       44     4         build/nanos2/obj/sdk/src/os_io_seproxyhal.o:(.text.io_seproxyhal_handle_capdu_event)
c0deb2b4 c0deb2b4        0     1                 $t.9
c0deb2b5 c0deb2b5       44     1                 io_seproxyhal_handle_capdu_event
c0deb2ec c0deb2ec        0     1                 $d.10
c0deb2f8 c0deb2f8       b8     4         build/nanos2/obj/sdk/src/os_io_seproxyhal.o:(.text.io_seproxyhal_handle_event)
c0deb2f8 c0deb2f8        0     1                 $t.11
c0deb2f9 c0deb2f9       b8     1                 io_seproxyhal_handle_event
c0deb3a8 c0deb3a8        0     1                 $d.12
c0deb3b0 c0deb3b0       4c     4         build/nanos2/obj/sdk/src/os_io_seproxyhal.o:(.text.io_seproxyhal_init)
c0deb3b0 c0deb3b0        0     1                 $t.13
c0deb3b1 c0deb3b1       4c     1                 io_seproxyhal_init
c0deb3f4 c0deb3f4        0     1                 $d.14
c0deb3fc c0deb3fc       4c     4         build/nanos2/obj/sdk/src/os_io_seproxyhal.o:(.text.os_io_seproxyhal_get_app_name_and_version)
c0deb3fc c0deb3fc        0     1                 $t.29
c0deb3fd c0deb3fd       4c     1                 os_io_seproxyhal_get_app_name_and_version
c0deb444 c0deb444        0     1                 $d.30
c0deb448 c0deb448       44     4         build/nanos2/obj/sdk/src/os_io_seproxyhal.o:(.text.os_io_seproxyhal_pki_load_certificate)
c0deb448 c0deb448        0     1                 $t.31
c0deb449 c0deb449       44     1                 os_io_seproxyhal_pki_load_certificate
c0deb488 c0deb488        0     1                 $d.32
c0deb48c c0deb48c      27c     4         build/nanos2/obj/sdk/src/os_io_seproxyhal.o:(.text.io_exchange)
c0deb48c c0deb48c        0     1                 $t.33
c0deb48d c0deb48d      27c     1                 io_exchange
c0deb6f0 c0deb6f0        0     1                 $d.34
c0deb708 c0deb708       48     4         build/nanos2/obj/sdk/src/os_io_seproxyhal.o:(.text.os_io_seph_recv_and_process)
c0deb708 c0deb708        0     1                 $t.35
c0deb709 c0deb709       48     1                 os_io_seph_recv_and_process
c0deb748 c0deb748        0     1                 $d.36
c0deb750 c0deb750        a     2         build/nanos2/obj/sdk/src/os_io_seproxyhal.o:(.text.OUTLINED_FUNCTION_0)
c0deb750 c0deb750        0     1                 $t.41
c0deb751 c0deb751        a     1                 OUTLINED_FUNCTION_0
c0deb75c c0deb75c       1c     4         build/nanos2/obj/sdk/src/os_io_usb.o:(.text.io_seproxyhal_get_ep_rx_size)
c0deb75c c0deb75c        0     1                 $t.0
c0deb75d c0deb75d       1c     1                 io_seproxyhal_get_ep_rx_size
c0deb774 c0deb774        0     1                 $d.1
c0deb778 c0deb778       60     4         build/nanos2/obj/sdk/src/os_io_usb.o:(.text.io_usb_send_ep)
c0deb778 c0deb778        0     1                 $t.2
c0deb779 c0deb779       60     1                 io_usb_send_ep
c0deb7d4 c0deb7d4        0     1                 $d.3
c0deb7d8 c0deb7d8        a     2         build/nanos2/obj/sdk/src/os_io_usb.o:(.text.io_usb_send_apdu_data)
c0deb7d8 c0deb7d8        0     1                 $t.4
c0deb7d9 c0deb7d9        a     1                 io_usb_send_apdu_data
c0deb7e4 c0deb7e4      194     4         build/nanos2/obj/sdk/src/os_io_usb.o:(.text.io_usb_hid_receive)
c0deb7e4 c0deb7e4        0     1                 $t.5
c0deb7e5 c0deb7e5      194     1                 io_usb_hid_receive
c0deb95c c0deb95c        0     1                 $d.6
c0deb978 c0deb978       24     4         build/nanos2/obj/sdk/src/os_io_usb.o:(.text.io_usb_hid_init)
c0deb978 c0deb978        0     1                 $t.7
c0deb979 c0deb979       24     1                 io_usb_hid_init
c0deb990 c0deb990        0     1                 $d.8
c0deb99c c0deb99c       ec     4         build/nanos2/obj/sdk/src/os_io_usb.o:(.text.io_usb_hid_sent)
c0deb99c c0deb99c        0     1                 $t.9
c0deb99d c0deb99d       ec     1                 io_usb_hid_sent
c0deba70 c0deba70        0     1                 $d.10
c0deba88 c0deba88       38     4         build/nanos2/obj/sdk/src/os_io_usb.o:(.text.io_usb_hid_send)
c0deba88 c0deba88        0     1                 $t.11
c0deba89 c0deba89       38     1                 io_usb_hid_send
c0debab0 c0debab0        0     1                 $d.12
c0debac0 c0debac0      324     4         build/nanos2/obj/sdk/src/os_printf.o:(.text.snprintf)
c0debac0 c0debac0        0     1                 $t.0
c0debac1 c0debac1      324     1                 snprintf
c0debdd0 c0debdd0        0     1                 $d.1
c0debde4 c0debde4       10     4         build/nanos2/obj/sdk/src/pic.o:(.text.pic_internal)
c0debde4 c0debde4        0     1                 $t.0
c0debde5 c0debde5        c     1                 pic_internal
c0debdf0 c0debdf0        0     1                 $d.2
c0debdf4 c0debdf4       3c     4         build/nanos2/obj/sdk/src/pic.o:(.text.pic)
c0debdf4 c0debdf4        0     1                 $t.1
c0debdf5 c0debdf5       2a     1                 pic
c0debe20 c0debe20        0     1                 $d.3
c0debe30 c0debe30        e     4         build/nanos2/obj/sdk/src/svc_call.o:(.text)
c0debe30 c0debe30        0     1                 $t.0
c0debe31 c0debe31        0     1                 SVC_Call
c0debe38 c0debe38        0     1                 exception
c0debe40 c0debe40        4     4         build/nanos2/obj/sdk/src/svc_cx_call.o:(.text)
c0debe40 c0debe40        0     1                 $t.0
c0debe41 c0debe41        0     1                 SVC_cx_call
c0debe44 c0debe44       10     2         build/nanos2/obj/sdk/src/syscalls.o:(.text.halt)
c0debe44 c0debe44        0     1                 $t.1
c0debe45 c0debe45       10     1                 halt
c0debe54 c0debe54       10     2         build/nanos2/obj/sdk/src/syscalls.o:(.text.nbgl_frontDrawRect)
c0debe54 c0debe54        0     1                 $t.2
c0debe55 c0debe55       10     1                 nbgl_frontDrawRect
c0debe64 c0debe64       1c     4         build/nanos2/obj/sdk/src/syscalls.o:(.text.nbgl_frontDrawImage)
c0debe64 c0debe64        0     1                 $t.5
c0debe65 c0debe65       1c     1                 nbgl_frontDrawImage
c0debe7c c0debe7c        0     1                 $d.6
c0debe80 c0debe80       24     4         build/nanos2/obj/sdk/src/syscalls.o:(.text.nbgl_frontDrawImageRle)
c0debe80 c0debe80        0     1                 $t.7
c0debe81 c0debe81       24     1                 nbgl_frontDrawImageRle
c0debea0 c0debea0        0     1                 $d.8
c0debea4 c0debea4       1c     4         build/nanos2/obj/sdk/src/syscalls.o:(.text.nbgl_frontDrawImageFile)
c0debea4 c0debea4        0     1                 $t.9
c0debea5 c0debea5       1c     1                 nbgl_frontDrawImageFile
c0debebc c0debebc        0     1                 $d.10
c0debec0 c0debec0       14     4         build/nanos2/obj/sdk/src/syscalls.o:(.text.nbgl_frontRefreshArea)
c0debec0 c0debec0        0     1                 $t.11
c0debec1 c0debec1       14     1                 nbgl_frontRefreshArea
c0debed0 c0debed0        0     1                 $d.12
c0debed4 c0debed4       14     4         build/nanos2/obj/sdk/src/syscalls.o:(.text.nbgl_font_getFont)
c0debed4 c0debed4        0     1                 $t.21
c0debed5 c0debed5       14     1                 nbgl_font_getFont
c0debee4 c0debee4        0     1                 $d.22
c0debee8 c0debee8       14     4         build/nanos2/obj/sdk/src/syscalls.o:(.text.nbgl_screen_reinit)
c0debee8 c0debee8        0     1                 $t.23
c0debee9 c0debee9       14     1                 nbgl_screen_reinit
c0debef8 c0debef8        0     1                 $d.24
c0debefc c0debefc       14     4         build/nanos2/obj/sdk/src/syscalls.o:(.text.nvm_write)
c0debefc c0debefc        0     1                 $t.25
c0debefd c0debefd       14     1                 nvm_write
c0debf0c c0debf0c        0     1                 $d.26
c0debf10 c0debf10       14     4         build/nanos2/obj/sdk/src/syscalls.o:(.text.cx_bn_lock)
c0debf10 c0debf10        0     1                 $t.34
c0debf11 c0debf11       14     1                 cx_bn_lock
c0debf20 c0debf20        0     1                 $d.35
c0debf24 c0debf24       10     2         build/nanos2/obj/sdk/src/syscalls.o:(.text.cx_bn_unlock)
c0debf24 c0debf24        0     1                 $t.36
c0debf25 c0debf25       10     1                 cx_bn_unlock
c0debf34 c0debf34       14     4         build/nanos2/obj/sdk/src/syscalls.o:(.text.cx_bn_alloc)
c0debf34 c0debf34        0     1                 $t.38
c0debf35 c0debf35       14     1                 cx_bn_alloc
c0debf44 c0debf44        0     1                 $d.39
c0debf48 c0debf48       18     4         build/nanos2/obj/sdk/src/syscalls.o:(.text.cx_bn_alloc_init)
c0debf48 c0debf48        0     1                 $t.40
c0debf49 c0debf49       18     1                 cx_bn_alloc_init
c0debf5c c0debf5c        0     1                 $d.41
c0debf60 c0debf60       14     4         build/nanos2/obj/sdk/src/syscalls.o:(.text.cx_bn_destroy)
c0debf60 c0debf60        0     1                 $t.42
c0debf61 c0debf61       14     1                 cx_bn_destroy
c0debf70 c0debf70        0     1                 $d.43
c0debf74 c0debf74       14     4         build/nanos2/obj/sdk/src/syscalls.o:(.text.cx_bn_nbytes)
c0debf74 c0debf74        0     1                 $t.44
c0debf75 c0debf75       14     1                 cx_bn_nbytes
c0debf84 c0debf84        0     1                 $d.45
c0debf88 c0debf88       14     4         build/nanos2/obj/sdk/src/syscalls.o:(.text.cx_bn_copy)
c0debf88 c0debf88        0     1                 $t.50
c0debf89 c0debf89       14     1                 cx_bn_copy
c0debf98 c0debf98        0     1                 $d.51
c0debf9c c0debf9c       14     4         build/nanos2/obj/sdk/src/syscalls.o:(.text.cx_bn_set_u32)
c0debf9c c0debf9c        0     1                 $t.52
c0debf9d c0debf9d       14     1                 cx_bn_set_u32
c0debfac c0debfac        0     1                 $d.53
c0debfb0 c0debfb0       18     4         build/nanos2/obj/sdk/src/syscalls.o:(.text.cx_bn_export)
c0debfb0 c0debfb0        0     1                 $t.56
c0debfb1 c0debfb1       18     1                 cx_bn_export
c0debfc4 c0debfc4        0     1                 $d.57
c0debfc8 c0debfc8       18     4         build/nanos2/obj/sdk/src/syscalls.o:(.text.cx_bn_cmp)
c0debfc8 c0debfc8        0     1                 $t.58
c0debfc9 c0debfc9       18     1                 cx_bn_cmp
c0debfdc c0debfdc        0     1                 $d.59
c0debfe0 c0debfe0       18     4         build/nanos2/obj/sdk/src/syscalls.o:(.text.cx_bn_cmp_u32)
c0debfe0 c0debfe0        0     1                 $t.60
c0debfe1 c0debfe1       18     1                 cx_bn_cmp_u32
c0debff4 c0debff4        0     1                 $d.61
c0debff8 c0debff8       18     4         build/nanos2/obj/sdk/src/syscalls.o:(.text.cx_bn_tst_bit)
c0debff8 c0debff8        0     1                 $t.70
c0debff9 c0debff9       18     1                 cx_bn_tst_bit
c0dec00c c0dec00c        0     1                 $d.71
c0dec010 c0dec010       18     4         build/nanos2/obj/sdk/src/syscalls.o:(.text.cx_bn_mod_add)
c0dec010 c0dec010        0     1                 $t.88
c0dec011 c0dec011       18     1                 cx_bn_mod_add
c0dec024 c0dec024        0     1                 $d.89
c0dec028 c0dec028       18     4         build/nanos2/obj/sdk/src/syscalls.o:(.text.cx_bn_mod_sub)
c0dec028 c0dec028        0     1                 $t.90
c0dec029 c0dec029       18     1                 cx_bn_mod_sub
c0dec03c c0dec03c        0     1                 $d.91
c0dec040 c0dec040       14     4         build/nanos2/obj/sdk/src/syscalls.o:(.text.cx_bn_is_prime)
c0dec040 c0dec040        0     1                 $t.108
c0dec041 c0dec041       14     1                 cx_bn_is_prime
c0dec050 c0dec050        0     1                 $d.109
c0dec054 c0dec054       14     4         build/nanos2/obj/sdk/src/syscalls.o:(.text.cx_mont_alloc)
c0dec054 c0dec054        0     1                 $t.116
c0dec055 c0dec055       14     1                 cx_mont_alloc
c0dec064 c0dec064        0     1                 $d.117
c0dec068 c0dec068       14     4         build/nanos2/obj/sdk/src/syscalls.o:(.text.cx_mont_init)
c0dec068 c0dec068        0     1                 $t.118
c0dec069 c0dec069       14     1                 cx_mont_init
c0dec078 c0dec078        0     1                 $d.119
c0dec07c c0dec07c       18     4         build/nanos2/obj/sdk/src/syscalls.o:(.text.cx_mont_to_montgomery)
c0dec07c c0dec07c        0     1                 $t.122
c0dec07d c0dec07d       18     1                 cx_mont_to_montgomery
c0dec090 c0dec090        0     1                 $d.123
c0dec094 c0dec094       18     4         build/nanos2/obj/sdk/src/syscalls.o:(.text.cx_mont_from_montgomery)
c0dec094 c0dec094        0     1                 $t.124
c0dec095 c0dec095       18     1                 cx_mont_from_montgomery
c0dec0a8 c0dec0a8        0     1                 $d.125
c0dec0ac c0dec0ac       18     4         build/nanos2/obj/sdk/src/syscalls.o:(.text.cx_mont_mul)
c0dec0ac c0dec0ac        0     1                 $t.126
c0dec0ad c0dec0ad       18     1                 cx_mont_mul
c0dec0c0 c0dec0c0        0     1                 $d.127
c0dec0c4 c0dec0c4       18     4         build/nanos2/obj/sdk/src/syscalls.o:(.text.cx_mont_invert_nprime)
c0dec0c4 c0dec0c4        0     1                 $t.132
c0dec0c5 c0dec0c5       18     1                 cx_mont_invert_nprime
c0dec0d8 c0dec0d8        0     1                 $d.133
c0dec0dc c0dec0dc       14     4         build/nanos2/obj/sdk/src/syscalls.o:(.text.cx_ecdomain_parameters_length)
c0dec0dc c0dec0dc        0     1                 $t.136
c0dec0dd c0dec0dd       14     1                 cx_ecdomain_parameters_length
c0dec0ec c0dec0ec        0     1                 $d.137
c0dec0f0 c0dec0f0       28     4         build/nanos2/obj/sdk/src/syscalls.o:(.text.os_perso_derive_node_with_seed_key)
c0dec0f0 c0dec0f0        0     1                 $t.209
c0dec0f1 c0dec0f1       28     1                 os_perso_derive_node_with_seed_key
c0dec114 c0dec114        0     1                 $d.210
c0dec118 c0dec118       20     4         build/nanos2/obj/sdk/src/syscalls.o:(.text.os_pki_load_certificate)
c0dec118 c0dec118        0     1                 $t.213
c0dec119 c0dec119       20     1                 os_pki_load_certificate
c0dec134 c0dec134        0     1                 $d.214
c0dec138 c0dec138       12     2         build/nanos2/obj/sdk/src/syscalls.o:(.text.os_perso_is_pin_set)
c0dec138 c0dec138        0     1                 $t.237
c0dec139 c0dec139       12     1                 os_perso_is_pin_set
c0dec14a c0dec14a       12     2         build/nanos2/obj/sdk/src/syscalls.o:(.text.os_global_pin_is_validated)
c0dec14a c0dec14a        0     1                 $t.238
c0dec14b c0dec14b       12     1                 os_global_pin_is_validated
c0dec15c c0dec15c       14     4         build/nanos2/obj/sdk/src/syscalls.o:(.text.os_ux)
c0dec15c c0dec15c        0     1                 $t.246
c0dec15d c0dec15d       14     1                 os_ux
c0dec16c c0dec16c        0     1                 $d.247
c0dec170 c0dec170       10     2         build/nanos2/obj/sdk/src/syscalls.o:(.text.os_flags)
c0dec170 c0dec170        0     1                 $t.251
c0dec171 c0dec171       10     1                 os_flags
c0dec180 c0dec180       18     4         build/nanos2/obj/sdk/src/syscalls.o:(.text.os_registry_get_current_app_tag)
c0dec180 c0dec180        0     1                 $t.271
c0dec181 c0dec181       18     1                 os_registry_get_current_app_tag
c0dec194 c0dec194        0     1                 $d.272
c0dec198 c0dec198       14     4         build/nanos2/obj/sdk/src/syscalls.o:(.text.os_sched_exit)
c0dec198 c0dec198        0     1                 $t.278
c0dec199 c0dec199       14     1                 os_sched_exit
c0dec1a8 c0dec1a8        0     1                 $d.279
c0dec1ac c0dec1ac       14     4         build/nanos2/obj/sdk/src/syscalls.o:(.text.io_seph_send)
c0dec1ac c0dec1ac        0     1                 $t.286
c0dec1ad c0dec1ad       14     1                 io_seph_send
c0dec1bc c0dec1bc        0     1                 $d.287
c0dec1c0 c0dec1c0       10     2         build/nanos2/obj/sdk/src/syscalls.o:(.text.io_seph_is_status_sent)
c0dec1c0 c0dec1c0        0     1                 $t.288
c0dec1c1 c0dec1c1       10     1                 io_seph_is_status_sent
c0dec1d0 c0dec1d0       18     4         build/nanos2/obj/sdk/src/syscalls.o:(.text.io_seph_recv)
c0dec1d0 c0dec1d0        0     1                 $t.289
c0dec1d1 c0dec1d1       18     1                 io_seph_recv
c0dec1e4 c0dec1e4        0     1                 $d.290
c0dec1e8 c0dec1e8       10     2         build/nanos2/obj/sdk/src/syscalls.o:(.text.try_context_get)
c0dec1e8 c0dec1e8        0     1                 $t.295
c0dec1e9 c0dec1e9       10     1                 try_context_get
c0dec1f8 c0dec1f8       14     4         build/nanos2/obj/sdk/src/syscalls.o:(.text.try_context_set)
c0dec1f8 c0dec1f8        0     1                 $t.296
c0dec1f9 c0dec1f9       14     1                 try_context_set
c0dec208 c0dec208        0     1                 $d.297
c0dec20c c0dec20c       18     4         build/nanos2/obj/sdk/src/syscalls.o:(.text.os_sched_last_status)
c0dec20c c0dec20c        0     1                 $t.298
c0dec20d c0dec20d       18     1                 os_sched_last_status
c0dec220 c0dec220        0     1                 $d.299
c0dec224 c0dec224       10     2         build/nanos2/obj/sdk/src/syscalls.o:(.text.os_sched_current_task)
c0dec224 c0dec224        0     1                 $t.304
c0dec225 c0dec225       10     1                 os_sched_current_task
c0dec234 c0dec234        8     2         build/nanos2/obj/sdk/src/syscalls.o:(.text.OUTLINED_FUNCTION_0)
c0dec234 c0dec234        0     1                 $t.324
c0dec235 c0dec235        8     1                 OUTLINED_FUNCTION_0
c0dec23c c0dec23c        a     2         build/nanos2/obj/sdk/src/syscalls.o:(.text.OUTLINED_FUNCTION_1)
c0dec23c c0dec23c        0     1                 $t.325
c0dec23d c0dec23d        a     1                 OUTLINED_FUNCTION_1
c0dec248 c0dec248       18     4         /opt/nanosplus-secure-sdk/arch/st33k1/lib/libgcc.a(_lshrdi3.o):(.text)
c0dec248 c0dec248        0     1                 $t
c0dec249 c0dec249       18     1                 __lshrdi3
c0dec249 c0dec249       18     1                 __aeabi_llsr
c0dec260 c0dec260       18     4         /opt/nanosplus-secure-sdk/arch/st33k1/lib/libgcc.a(_ashldi3.o):(.text)
c0dec260 c0dec260        0     1                 $t
c0dec261 c0dec261       18     1                 __ashldi3
c0dec261 c0dec261       18     1                 __aeabi_llsl
c0dec278 c0dec278        4     4         /opt/nanosplus-secure-sdk/arch/st33k1/lib/libgcc.a(_dvmd_tls.o):(.text)
c0dec278 c0dec278        0     1                 $t
c0dec279 c0dec279        2     1                 __aeabi_idiv0
c0dec279 c0dec279        2     1                 __aeabi_ldiv0
c0dec27c c0dec27c       30     4         /opt/nanosplus-secure-sdk/arch/st33k1/lib/libgcc.a(_aeabi_uldivmod.o):(.text)
c0dec27c c0dec27c        0     1                 $t
c0dec27d c0dec27d        0     1                 __aeabi_uldivmod
c0dec2ac c0dec2ac      2e8     4         /opt/nanosplus-secure-sdk/arch/st33k1/lib/libgcc.a(_udivmoddi4.o):(.text)
c0dec2ac c0dec2ac        0     1                 $t
c0dec2ad c0dec2ad      2e8     1                 __udivmoddi4
c0dec594 c0dec594        6     2         /opt/nanosplus-secure-sdk/arch/st33k1/lib/libc.a(lib_a-aeabi_memclr.o):(.text.__aeabi_memclr)
c0dec594 c0dec594        0     1                 $t
c0dec595 c0dec595        6     1                 __aeabi_memclr
c0dec595 c0dec595        6     1                 __aeabi_memclr8
c0dec595 c0dec595        6     1                 __aeabi_memclr4
c0dec59a c0dec59a        4     2         /opt/nanosplus-secure-sdk/arch/st33k1/lib/libc.a(lib_a-aeabi_memcpy.o):(.text.__aeabi_memcpy)
c0dec59a c0dec59a        0     1                 $t
c0dec59b c0dec59b        4     1                 __aeabi_memcpy
c0dec59b c0dec59b        4     1                 __aeabi_memcpy8
c0dec59b c0dec59b        4     1                 __aeabi_memcpy4
c0dec59e c0dec59e        4     2         /opt/nanosplus-secure-sdk/arch/st33k1/lib/libc.a(lib_a-aeabi_memmove.o):(.text.__aeabi_memmove)
c0dec59e c0dec59e        0     1                 $t
c0dec59f c0dec59f        4     1                 __aeabi_memmove
c0dec59f c0dec59f        4     1                 __aeabi_memmove8
c0dec59f c0dec59f        4     1                 __aeabi_memmove4
c0dec5a2 c0dec5a2        a     2         /opt/nanosplus-secure-sdk/arch/st33k1/lib/libc.a(lib_a-aeabi_memset.o):(.text.__aeabi_memset)
c0dec5a2 c0dec5a2        0     1                 $t
c0dec5a3 c0dec5a3        a     1                 __aeabi_memset
c0dec5a3 c0dec5a3        a     1                 __aeabi_memset8
c0dec5a3 c0dec5a3        a     1                 __aeabi_memset4
c0dec5ac c0dec5ac        4     2         /opt/nanosplus-secure-sdk/arch/st33k1/lib/libc.a(lib_a-explicit_bzero.o):(.text.explicit_bzero)
c0dec5ac c0dec5ac        0     1                 $t
c0dec5ad c0dec5ad        4     1                 explicit_bzero
c0dec5b0 c0dec5b0        8     2         /opt/nanosplus-secure-sdk/arch/st33k1/lib/libc.a(lib_a-bzero.o):(.text.bzero)
c0dec5b0 c0dec5b0        0     1                 $t
c0dec5b1 c0dec5b1        8     1                 bzero
c0dec5b8 c0dec5b8       1a     2         /opt/nanosplus-secure-sdk/arch/st33k1/lib/libc.a(lib_a-memcpy-stub.o):(.text.memcpy)
c0dec5b8 c0dec5b8        0     1                 $t
c0dec5b9 c0dec5b9       1a     1                 memcpy
c0dec5d2 c0dec5d2       34     2         /opt/nanosplus-secure-sdk/arch/st33k1/lib/libc.a(lib_a-memmove.o):(.text.memmove)
c0dec5d2 c0dec5d2        0     1                 $t
c0dec5d3 c0dec5d3       34     1                 memmove
c0dec606 c0dec606       10     2         /opt/nanosplus-secure-sdk/arch/st33k1/lib/libc.a(lib_a-memset.o):(.text.memset)
c0dec606 c0dec606        0     1                 $t
c0dec607 c0dec607       10     1                 memset
c0dec618 c0dec618       1c     4         /opt/nanosplus-secure-sdk/arch/st33k1/lib/libc.a(lib_a-setjmp.o):(.text)
c0dec618 c0dec618        0     1                 $t
c0dec619 c0dec619        c     1                 setjmp
c0dec625 c0dec625        e     1                 longjmp
c0dec634 c0dec634       14     2         /opt/nanosplus-secure-sdk/arch/st33k1/lib/libc.a(lib_a-strcmp.o):(.text)
c0dec634 c0dec634        0     1                 $t
c0dec635 c0dec635       14     1                 strcmp
c0dec648 c0dec648       10     2         /opt/nanosplus-secure-sdk/arch/st33k1/lib/libc.a(lib_a-strlen.o):(.text)
c0dec648 c0dec648        0     1                 $t
c0dec649 c0dec649       10     1                 strlen
c0dec658 c0dec658       26     2         /opt/nanosplus-secure-sdk/arch/st33k1/lib/libc.a(lib_a-strncpy.o):(.text.strncpy)
c0dec658 c0dec658        0     1                 $t
c0dec659 c0dec659       26     1                 strncpy
c0dec67e c0dec67e        0     1         _ecode = .
c0dec67e c0dec67e       19     1         build/nanos2/gen_src/glyphs.o:(.rodata.C_home_boilerplate_14px_bitmap)
c0dec67e c0dec67e       19     1                 C_home_boilerplate_14px_bitmap
c0dec697 c0dec697        a     1         build/nanos2/gen_src/glyphs.o:(.rodata.C_home_boilerplate_14px)
c0dec697 c0dec697        a     1                 C_home_boilerplate_14px
c0dec6a1 c0dec6a1       19     1         build/nanos2/gen_src/glyphs.o:(.rodata.C_Information_circle_14px_bitmap)
c0dec6a1 c0dec6a1       19     1                 C_Information_circle_14px_bitmap
c0dec6ba c0dec6ba        a     1         build/nanos2/gen_src/glyphs.o:(.rodata.C_Information_circle_14px)
c0dec6ba c0dec6ba        a     1                 C_Information_circle_14px
c0dec6c4 c0dec6c4       19     1         build/nanos2/gen_src/glyphs.o:(.rodata.C_Quit_14px_bitmap)
c0dec6c4 c0dec6c4       19     1                 C_Quit_14px_bitmap
c0dec6dd c0dec6dd        a     1         build/nanos2/gen_src/glyphs.o:(.rodata.C_Quit_14px)
c0dec6dd c0dec6dd        a     1                 C_Quit_14px
c0dec6e7 c0dec6e7        c     1         build/nanos2/gen_src/glyphs.o:(.rodata.C_Switch_Off_8px_bitmap)
c0dec6e7 c0dec6e7        c     1                 C_Switch_Off_8px_bitmap
c0dec6f3 c0dec6f3        a     1         build/nanos2/gen_src/glyphs.o:(.rodata.C_Switch_Off_8px)
c0dec6f3 c0dec6f3        a     1                 C_Switch_Off_8px
c0dec6fd c0dec6fd        c     1         build/nanos2/gen_src/glyphs.o:(.rodata.C_Switch_On_8px_bitmap)
c0dec6fd c0dec6fd        c     1                 C_Switch_On_8px_bitmap
c0dec709 c0dec709        a     1         build/nanos2/gen_src/glyphs.o:(.rodata.C_Switch_On_8px)
c0dec709 c0dec709        a     1                 C_Switch_On_8px
c0dec713 c0dec713       19     1         build/nanos2/gen_src/glyphs.o:(.rodata.C_icon_back_x_bitmap)
c0dec713 c0dec713       19     1                 C_icon_back_x_bitmap
c0dec72c c0dec72c        a     1         build/nanos2/gen_src/glyphs.o:(.rodata.C_icon_back_x)
c0dec72c c0dec72c        a     1                 C_icon_back_x
c0dec736 c0dec736       19     1         build/nanos2/gen_src/glyphs.o:(.rodata.C_icon_coggle_bitmap)
c0dec736 c0dec736       19     1                 C_icon_coggle_bitmap
c0dec74f c0dec74f        a     1         build/nanos2/gen_src/glyphs.o:(.rodata.C_icon_coggle)
c0dec74f c0dec74f        a     1                 C_icon_coggle
c0dec759 c0dec759       19     1         build/nanos2/gen_src/glyphs.o:(.rodata.C_icon_crossmark_bitmap)
c0dec759 c0dec759       19     1                 C_icon_crossmark_bitmap
c0dec772 c0dec772        a     1         build/nanos2/gen_src/glyphs.o:(.rodata.C_icon_crossmark)
c0dec772 c0dec772        a     1                 C_icon_crossmark
c0dec77c c0dec77c        4     1         build/nanos2/gen_src/glyphs.o:(.rodata.C_icon_down_bitmap)
c0dec77c c0dec77c        4     1                 C_icon_down_bitmap
c0dec780 c0dec780        a     1         build/nanos2/gen_src/glyphs.o:(.rodata.C_icon_down)
c0dec780 c0dec780        a     1                 C_icon_down
c0dec78a c0dec78a        4     1         build/nanos2/gen_src/glyphs.o:(.rodata.C_icon_left_bitmap)
c0dec78a c0dec78a        4     1                 C_icon_left_bitmap
c0dec78e c0dec78e        a     1         build/nanos2/gen_src/glyphs.o:(.rodata.C_icon_left)
c0dec78e c0dec78e        a     1                 C_icon_left
c0dec798 c0dec798        4     1         build/nanos2/gen_src/glyphs.o:(.rodata.C_icon_right_bitmap)
c0dec798 c0dec798        4     1                 C_icon_right_bitmap
c0dec79c c0dec79c        a     1         build/nanos2/gen_src/glyphs.o:(.rodata.C_icon_right)
c0dec79c c0dec79c        a     1                 C_icon_right
c0dec7a6 c0dec7a6        4     1         build/nanos2/gen_src/glyphs.o:(.rodata.C_icon_up_bitmap)
c0dec7a6 c0dec7a6        4     1                 C_icon_up_bitmap
c0dec7aa c0dec7aa        a     1         build/nanos2/gen_src/glyphs.o:(.rodata.C_icon_up)
c0dec7aa c0dec7aa        a     1                 C_icon_up
c0dec7b4 c0dec7b4       17     1         build/nanos2/gen_src/glyphs.o:(.rodata.C_icon_validate_14_bitmap)
c0dec7b4 c0dec7b4       17     1                 C_icon_validate_14_bitmap
c0dec7cb c0dec7cb        a     1         build/nanos2/gen_src/glyphs.o:(.rodata.C_icon_validate_14)
c0dec7cb c0dec7cb        a     1                 C_icon_validate_14
c0dec7d5 c0dec7d5       19     1         build/nanos2/gen_src/glyphs.o:(.rodata.C_icon_warning_bitmap)
c0dec7d5 c0dec7d5       19     1                 C_icon_warning_bitmap
c0dec7ee c0dec7ee        a     1         build/nanos2/gen_src/glyphs.o:(.rodata.C_icon_warning)
c0dec7ee c0dec7ee        a     1                 C_icon_warning
c0dec7f8 c0dec7f8       19     1         build/nanos2/gen_src/glyphs.o:(.rodata.C_app_boilerplate_14px_bitmap)
c0dec7f8 c0dec7f8       19     1                 C_app_boilerplate_14px_bitmap
c0dec811 c0dec811        a     1         build/nanos2/gen_src/glyphs.o:(.rodata.C_app_boilerplate_14px)
c0dec811 c0dec811        a     1                 C_app_boilerplate_14px
c0dec81b c0dec81b      356     1         <internal>:(.text)
c0decb74 c0decb74      1a0     4         <internal>:(.text)
c0decd14 c0decd14      995     1         build/nanos2/obj/app/src/handler/zkn_magicbox.o:(.rodata.handler_cmd_verify_dilithium.sig)
c0decd14 c0decd14      995     1                 handler_cmd_verify_dilithium.sig
c0ded6a9 c0ded6a9      520     1         build/nanos2/obj/app/src/handler/zkn_magicbox.o:(.rodata.handler_cmd_verify_dilithium.pk)
c0ded6a9 c0ded6a9      520     1                 handler_cmd_verify_dilithium.pk
c0dedbcc c0dedbcc        c     4         build/nanos2/obj/app/src/ui/menu_nbgl.o:(.rodata.settingContents)
c0dedbcc c0dedbcc        c     1                 settingContents
c0dedbd8 c0dedbd8       10     4         build/nanos2/obj/app/src/ui/menu_nbgl.o:(.rodata.infoList)
c0dedbd8 c0dedbd8       10     1                 infoList
c0dedbe8 c0dedbe8       34     4         build/nanos2/obj/app/src/ui/menu_nbgl.o:(.rodata.contents)
c0dedbe8 c0dedbe8       34     1                 contents
c0dedc1c c0dedc1c        8     4         build/nanos2/obj/app/src/ui/menu_nbgl.o:(.rodata.INFO_TYPES)
c0dedc1c c0dedc1c        8     1                 INFO_TYPES
c0dedc24 c0dedc24        8     4         build/nanos2/obj/app/src/ui/menu_nbgl.o:(.rodata.INFO_CONTENTS)
c0dedc24 c0dedc24        8     1                 INFO_CONTENTS
c0dedc30 c0dedc30       c0     8         build/nanos2/obj/app/src/zknox/dilithium/fips202.o:(.rodata.pqcrystals_dilithium_fips202_ref_KeccakF_RoundConstants)
c0dedc30 c0dedc30       c0     1                 pqcrystals_dilithium_fips202_ref_KeccakF_RoundConstants
c0dedcf0 c0dedcf0      400     4         build/nanos2/obj/app/src/zknox/dilithium/ntt.o:(.rodata.zetas)
c0dedcf0 c0dedcf0      400     1                 zetas
c0dee0f0 c0dee0f0      100     2         build/nanos2/obj/app/src/zknox/dilithium/smallntt_3329.o:(.rodata.small_zetas)
c0dee0f0 c0dee0f0      100     1                 small_zetas
c0dee1f0 c0dee1f0        2     1         build/nanos2/obj/sdk/lib_nbgl/src/nbgl_draw.o:(.rodata.radiusValues)
c0dee1f0 c0dee1f0        2     1                 radiusValues
c0dee1f2 c0dee1f2        2     1         build/nanos2/obj/sdk/lib_nbgl/src/nbgl_draw.o:(.rodata.quarter_disc_3px_180_1bpp)
c0dee1f2 c0dee1f2        2     1                 quarter_disc_3px_180_1bpp
c0dee1f4 c0dee1f4        2     1         build/nanos2/obj/sdk/lib_nbgl/src/nbgl_draw.o:(.rodata.quarter_circle_3px_180_1bpp)
c0dee1f4 c0dee1f4        2     1                 quarter_circle_3px_180_1bpp
c0dee1f6 c0dee1f6        2     1         build/nanos2/obj/sdk/lib_nbgl/src/nbgl_draw.o:(.rodata.quarter_disc_3px_270_1bpp)
c0dee1f6 c0dee1f6        2     1                 quarter_disc_3px_270_1bpp
c0dee1f8 c0dee1f8        2     1         build/nanos2/obj/sdk/lib_nbgl/src/nbgl_draw.o:(.rodata.quarter_circle_3px_270_1bpp)
c0dee1f8 c0dee1f8        2     1                 quarter_circle_3px_270_1bpp
c0dee1fa c0dee1fa        2     1         build/nanos2/obj/sdk/lib_nbgl/src/nbgl_draw.o:(.rodata.quarter_disc_3px_90_1bpp)
c0dee1fa c0dee1fa        2     1                 quarter_disc_3px_90_1bpp
c0dee1fc c0dee1fc        2     1         build/nanos2/obj/sdk/lib_nbgl/src/nbgl_draw.o:(.rodata.quarter_circle_3px_90_1bpp)
c0dee1fc c0dee1fc        2     1                 quarter_circle_3px_90_1bpp
c0dee1fe c0dee1fe        2     1         build/nanos2/obj/sdk/lib_nbgl/src/nbgl_draw.o:(.rodata.quarter_disc_3px_1bpp)
c0dee1fe c0dee1fe        2     1                 quarter_disc_3px_1bpp
c0dee200 c0dee200        2     1         build/nanos2/obj/sdk/lib_nbgl/src/nbgl_draw.o:(.rodata.quarter_circle_3px_1bpp)
c0dee200 c0dee200        2     1                 quarter_circle_3px_1bpp
c0dee204 c0dee204       44     4         build/nanos2/obj/sdk/lib_nbgl/src/nbgl_obj.o:(.rodata.draw_functions)
c0dee204 c0dee204       44     1                 draw_functions
c0dee248 c0dee248       28     4         build/nanos2/obj/sdk/lib_nbgl/src/nbgl_use_case_nanos.o:(.rodata.blindSigningWarning)
c0dee248 c0dee248       28     1                 blindSigningWarning
c0dee270 c0dee270        9     4         build/nanos2/obj/sdk/lib_stusb_impl/usbd_impl.o:(.rodata.USBD_HID_Desc)
c0dee270 c0dee270        9     1                 USBD_HID_Desc
c0dee279 c0dee279       22     1         build/nanos2/obj/sdk/lib_stusb_impl/usbd_impl.o:(.rodata.HID_ReportDesc)
c0dee279 c0dee279       22     1                 HID_ReportDesc
c0dee29b c0dee29b       39     1         build/nanos2/obj/sdk/lib_stusb_impl/usbd_impl.o:(.rodata.C_usb_bos)
c0dee29b c0dee29b       39     1                 C_usb_bos
c0dee2d4 c0dee2d4       20     4         build/nanos2/obj/sdk/lib_stusb_impl/usbd_impl.o:(.rodata.HID_Desc)
c0dee2d4 c0dee2d4       20     1                 HID_Desc
c0dee2f4 c0dee2f4       12     1         build/nanos2/obj/sdk/lib_stusb_impl/usbd_impl.o:(.rodata.C_winusb_string_descriptor)
c0dee2f4 c0dee2f4       12     1                 C_winusb_string_descriptor
c0dee306 c0dee306       92     1         build/nanos2/obj/sdk/lib_stusb_impl/usbd_impl.o:(.rodata.C_winusb_guid)
c0dee306 c0dee306       92     1                 C_winusb_guid
c0dee398 c0dee398       b2     1         build/nanos2/obj/sdk/lib_stusb_impl/usbd_impl.o:(.rodata.C_winusb_request_descriptor)
c0dee398 c0dee398       b2     1                 C_winusb_request_descriptor
c0dee44c c0dee44c       38     4         build/nanos2/obj/sdk/lib_stusb_impl/usbd_impl.o:(.rodata.USBD_HID)
c0dee44c c0dee44c       38     1                 USBD_HID
c0dee484 c0dee484       38     4         build/nanos2/obj/sdk/lib_stusb_impl/usbd_impl.o:(.rodata.USBD_WEBUSB)
c0dee484 c0dee484       38     1                 USBD_WEBUSB
c0dee4bc c0dee4bc       12     1         build/nanos2/obj/sdk/lib_stusb_impl/usbd_impl.o:(.rodata.USBD_DeviceDesc)
c0dee4bc c0dee4bc       12     1                 USBD_DeviceDesc
c0dee4ce c0dee4ce        4     1         build/nanos2/obj/sdk/lib_stusb_impl/usbd_impl.o:(.rodata.USBD_LangIDDesc)
c0dee4ce c0dee4ce        4     1                 USBD_LangIDDesc
c0dee4d2 c0dee4d2        e     1         build/nanos2/obj/sdk/lib_stusb_impl/usbd_impl.o:(.rodata.USBD_MANUFACTURER_STRING)
c0dee4d2 c0dee4d2        e     1                 USBD_MANUFACTURER_STRING
c0dee4e0 c0dee4e0       18     1         build/nanos2/obj/sdk/lib_stusb_impl/usbd_impl.o:(.rodata.USBD_PRODUCT_FS_STRING)
c0dee4e0 c0dee4e0       18     1                 USBD_PRODUCT_FS_STRING
c0dee4f8 c0dee4f8        a     1         build/nanos2/obj/sdk/lib_stusb_impl/usbd_impl.o:(.rodata.USB_SERIAL_STRING)
c0dee4f8 c0dee4f8        a     1                 USB_SERIAL_STRING
c0dee502 c0dee502       28     1         build/nanos2/obj/sdk/lib_stusb_impl/usbd_impl.o:(.rodata.C_winusb_wcid)
c0dee502 c0dee502       28     1                 C_winusb_wcid
c0dee52c c0dee52c       40     4         build/nanos2/obj/sdk/lib_stusb_impl/usbd_impl.o:(.rodata.USBD_CfgDesc)
c0dee52c c0dee52c       40     1                 USBD_CfgDesc
c0dee56c c0dee56c        a     4         build/nanos2/obj/sdk/lib_stusb_impl/usbd_impl.o:(.rodata.USBD_DeviceQualifierDesc)
c0dee56c c0dee56c        a     1                 USBD_DeviceQualifierDesc
c0dee576 c0dee576        5     1         build/nanos2/obj/sdk/src/os_io_seproxyhal.o:(.rodata.seph_io_general_status)
c0dee576 c0dee576        5     1                 seph_io_general_status
c0dee57b c0dee57b       20     1         <internal>:(.text)
c0dee59b c0dee59b        1     1         . = ALIGN ( 4 )
c0dee59c c0dee59c        0     1         _etext = .
c0dee59c c0dee59c       64     1         . = ALIGN ( PAGE_SIZE )
c0dee600 c0dee600        0     1         _nvram_data = .
c0dee600 c0dee600        3     1         build/nanos2/obj/app/src/app_main.o:(.rodata.N_storage_real)
c0dee600 c0dee600        3     1                 N_storage_real
c0dee603 c0dee603      1fd     1         . = ALIGN ( PAGE_SIZE )
c0dee800 c0dee800        0     1         _envram_data = .
c0dee800 c0dee800        0     1         _install_parameters = .
c0dee800 c0dee800       3f     1         build/nanos2/obj/sdk/src/app_metadata.o:(.install_parameters)
c0dee800 c0dee800       3f     1                 install_parameters
c0dee83f c0dee83f        0     1         _einstall_parameters = .
c0dee83f c0dee83f        0     1         _nvram_end = .
d0000000 d0000000        0     1 .data
d0000000 d0000000        0     1         . = ALIGN ( 4 )
d0000000 d0000000        0     1         _data = .
d0000000 d0000000        0     1         _edata = .
d0000000 d0000000        0     1 
da7a0000 da7a0000     2bdc     8 .bss
da7a0000 da7a0000        0     1         _bss = .
da7a0000 da7a0000      2d8     8         build/nanos2/obj/app/src/app_main.o:(.bss.G_context)
da7a0000 da7a0000      2d8     1                 G_context
da7a02d8 da7a02d8     10f8     8         build/nanos2/obj/app/src/app_main.o:(.bss.g_zknox)
da7a02d8 da7a02d8     10f8     1                 g_zknox
da7a13d0 da7a13d0       1c     4         build/nanos2/obj/app/src/ui/menu_nbgl.o:(.bss..L_MergedGlobals)
da7a13d0 da7a13d0       1c     1                 .L_MergedGlobals
da7a13d0 da7a13d0        1     1                 initSettingPage
da7a13d4 da7a13d4       18     1                 switches
da7a13ec da7a13ec       2b     4         build/nanos2/obj/app/src/ui/nbgl_display_address.o:(.bss.g_address)
da7a13ec da7a13ec       2b     1                 g_address
da7a1418 da7a1418       7f     4         build/nanos2/obj/app/src/ui/nbgl_display_transaction.o:(.bss..L_MergedGlobals)
da7a1418 da7a1418       7f     1                 .L_MergedGlobals
da7a1418 da7a1418       14     1                 pairList
da7a142c da7a142c       1e     1                 g_amount
da7a144c da7a144c       20     1                 pairs
da7a146c da7a146c       2b     1                 g_address
da7a1498 da7a1498        8     4         build/nanos2/obj/sdk/lib_nbgl/src/nbgl_buttons.o:(.bss..L_MergedGlobals)
da7a1498 da7a1498        8     1                 .L_MergedGlobals
da7a1498 da7a1498        1     1                 gButtonMask
da7a149c da7a149c        4     1                 gButtonSameMaskCounter
da7a14a0 da7a14a0       24     4         build/nanos2/obj/sdk/lib_nbgl/src/nbgl_layout_nanos.o:(.bss.gLayout)
da7a14a0 da7a14a0       24     1                 gLayout
da7a14c4 da7a14c4       14     4         build/nanos2/obj/sdk/lib_nbgl/src/nbgl_layout_nanos.o:(.bss.nbgl_layoutAddText.tmpString)
da7a14c4 da7a14c4       14     1                 nbgl_layoutAddText.tmpString
da7a14d8 da7a14d8        1     1         build/nanos2/obj/sdk/lib_nbgl/src/nbgl_obj.o:(.bss.objDrawingDisabled)
da7a14d8 da7a14d8        1     1                 objDrawingDisabled
da7a14da da7a14da        a     2         build/nanos2/obj/sdk/lib_nbgl/src/nbgl_obj.o:(.bss.refreshArea)
da7a14da da7a14da        a     1                 refreshArea
da7a14e4 da7a14e4      801     1         build/nanos2/obj/sdk/lib_nbgl/src/nbgl_obj.o:(.bss.ramBuffer)
da7a14e4 da7a14e4      801     1                 ramBuffer
da7a1ce5 da7a1ce5      7a8     1         build/nanos2/obj/sdk/lib_nbgl/src/nbgl_obj_pool.o:(.bss.objPool)
da7a1ce5 da7a1ce5      7a8     1                 objPool
da7a2490 da7a2490      100     4         build/nanos2/obj/sdk/lib_nbgl/src/nbgl_obj_pool.o:(.bss.objContainerPool)
da7a2490 da7a2490      100     1                 objContainerPool
da7a2590 da7a2590       6b     1         build/nanos2/obj/sdk/lib_nbgl/src/nbgl_obj_pool.o:(.bss..L_MergedGlobals)
da7a2590 da7a2590       6b     1                 .L_MergedGlobals
da7a2590 da7a2590        1     1                 nbUsedObjsInPool
da7a2591 da7a2591        1     1                 initialized
da7a2592 da7a2592        1     1                 nbUsedObjsInContainerPool
da7a2593 da7a2593       28     1                 objPoolLayers
da7a25bb da7a25bb       40     1                 objPointersPoolLayers
da7a25fb da7a25fb      100     1         build/nanos2/obj/sdk/lib_nbgl/src/nbgl_screen.o:(.bss.screenStack)
da7a25fb da7a25fb      100     1                 screenStack
da7a26fc da7a26fc        8     4         build/nanos2/obj/sdk/lib_nbgl/src/nbgl_screen.o:(.bss..L_MergedGlobals)
da7a26fc da7a26fc        8     1                 .L_MergedGlobals
da7a26fc da7a26fc        1     1                 nbScreensOnStack
da7a2700 da7a2700        4     1                 topOfStack
da7a2704 da7a2704       d8     4         build/nanos2/obj/sdk/lib_nbgl/src/nbgl_step.o:(.bss.contexts)
da7a2704 da7a2704       d8     1                 contexts
da7a27dc da7a27dc       68     4         build/nanos2/obj/sdk/lib_nbgl/src/nbgl_use_case_nanos.o:(.bss..L_MergedGlobals)
da7a27dc da7a27dc       68     1                 .L_MergedGlobals
da7a27dc da7a27dc       28     1                 reviewWithWarnCtx
da7a2804 da7a2804       40     1                 context
da7a2844 da7a2844      12c     1         build/nanos2/obj/sdk/lib_standard_app/io.o:(.bss.G_io_seproxyhal_spi_buffer)
da7a2844 da7a2844      12c     1                 G_io_seproxyhal_spi_buffer
da7a2970 da7a2970        8     4         build/nanos2/obj/sdk/lib_standard_app/io.o:(.bss..L_MergedGlobals)
da7a2970 da7a2970        8     1                 .L_MergedGlobals
da7a2970 da7a2970        1     1                 G_io_state
da7a2974 da7a2974        4     1                 G_output_len
da7a2978 da7a2978        c     4         build/nanos2/obj/sdk/lib_standard_app/main.o:(.bss.G_ux_params)
da7a2978 da7a2978        c     1                 G_ux_params
da7a2984 da7a2984       d4     4         build/nanos2/obj/sdk/lib_stusb/STM32_USB_Device_Library/Core/Src/usbd_core.o:(.bss.USBD_Device)
da7a2984 da7a2984       d4     1                 USBD_Device
da7a2a58 da7a2a58        4     4         build/nanos2/obj/sdk/lib_stusb/usbd_conf.o:(.bss.ep_in_stall)
da7a2a58 da7a2a58        4     1                 ep_in_stall
da7a2a5c da7a2a5c        4     4         build/nanos2/obj/sdk/lib_stusb/usbd_conf.o:(.bss.ep_out_stall)
da7a2a5c da7a2a5c        4     1                 ep_out_stall
da7a2a60 da7a2a60        4     4         build/nanos2/obj/sdk/lib_ux_nbgl/ux.o:(.bss.nbTicks)
da7a2a60 da7a2a60        4     1                 nbTicks
da7a2a64 da7a2a64      104     1         build/nanos2/obj/sdk/src/os.o:(.bss.G_io_apdu_buffer)
da7a2a64 da7a2a64      104     1                 G_io_apdu_buffer
da7a2b68 da7a2b68       1c     4         build/nanos2/obj/sdk/src/os_io_seproxyhal.o:(.bss.G_io_app)
da7a2b68 da7a2b68       1c     1                 G_io_app
da7a2b84 da7a2b84       40     1         build/nanos2/obj/sdk/src/os_io_usb.o:(.bss.G_io_usb_ep_buffer)
da7a2b84 da7a2b84       40     1                 G_io_usb_ep_buffer
da7a2bc4 da7a2bc4        4     4         build/nanos2/obj/sdk/src/os_io_usb.o:(.bss.G_io_usb_hid_sequence_number)
da7a2bc4 da7a2bc4        4     1                 G_io_usb_hid_sequence_number
da7a2bc8 da7a2bc8        4     4         build/nanos2/obj/sdk/src/os_io_usb.o:(.bss.G_io_usb_hid_total_length)
da7a2bc8 da7a2bc8        4     1                 G_io_usb_hid_total_length
da7a2bcc da7a2bcc        4     4         build/nanos2/obj/sdk/src/os_io_usb.o:(.bss.G_io_usb_hid_remaining_length)
da7a2bcc da7a2bcc        4     1                 G_io_usb_hid_remaining_length
da7a2bd0 da7a2bd0        4     4         build/nanos2/obj/sdk/src/os_io_usb.o:(.bss.G_io_usb_hid_current_buffer)
da7a2bd0 da7a2bd0        4     1                 G_io_usb_hid_current_buffer
da7a2bd4 da7a2bd4        4     4         build/nanos2/obj/sdk/src/os_io_usb.o:(.bss.G_io_usb_hid_channel)
da7a2bd4 da7a2bd4        4     1                 G_io_usb_hid_channel
da7a2bd8 da7a2bd8        0     1         _ebss = .
da7a2bd8 da7a2bd8        0     1         . = ALIGN ( 4 )
da7a2bd8 da7a2bd8        0     1         app_stack_canary = .
da7a2bd8 da7a2bd8        4     1         . += 4
da7a2bdc da7a2bdc        0     1         _stack = .
da7a2bdc da7a2bdc        0     1         _estack = ABSOLUTE ( END_STACK )
da7a2bdc da7a2bdc        0     1 
d0000000 d0000000       10     4 DEBUG
d0000000 d0000000       10     4         <internal>:(.ARM.exidx)
       0        0       37     1 .comment
       0        0       37     1         <internal>:(.comment)
       0        0      248     4 .debug_frame
       0        0       44     4         /opt/nanosplus-secure-sdk/arch/st33k1/lib/libgcc.a(_aeabi_ldivmod.o):(.debug_frame)
      44       44       2c     4         /opt/nanosplus-secure-sdk/arch/st33k1/lib/libgcc.a(_aeabi_uldivmod.o):(.debug_frame)
      70       70       38     4         /opt/nanosplus-secure-sdk/arch/st33k1/lib/libgcc.a(_udivmoddi4.o):(.debug_frame)
      a8       a8       20     4         /opt/nanosplus-secure-sdk/arch/st33k1/lib/libc.a(lib_a-aeabi_memclr.o):(.debug_frame)
      c8       c8       20     4         /opt/nanosplus-secure-sdk/arch/st33k1/lib/libc.a(lib_a-aeabi_memcpy.o):(.debug_frame)
      e8       e8       20     4         /opt/nanosplus-secure-sdk/arch/st33k1/lib/libc.a(lib_a-aeabi_memmove.o):(.debug_frame)
     108      108       20     4         /opt/nanosplus-secure-sdk/arch/st33k1/lib/libc.a(lib_a-aeabi_memset.o):(.debug_frame)
     128      128       20     4         /opt/nanosplus-secure-sdk/arch/st33k1/lib/libc.a(lib_a-explicit_bzero.o):(.debug_frame)
     148      148       20     4         /opt/nanosplus-secure-sdk/arch/st33k1/lib/libc.a(lib_a-bzero.o):(.debug_frame)
     168      168       28     4         /opt/nanosplus-secure-sdk/arch/st33k1/lib/libc.a(lib_a-memcmp.o):(.debug_frame)
     190      190       28     4         /opt/nanosplus-secure-sdk/arch/st33k1/lib/libc.a(lib_a-memcpy-stub.o):(.debug_frame)
     1b8      1b8       28     4         /opt/nanosplus-secure-sdk/arch/st33k1/lib/libc.a(lib_a-memmove.o):(.debug_frame)
     1e0      1e0       20     4         /opt/nanosplus-secure-sdk/arch/st33k1/lib/libc.a(lib_a-memset.o):(.debug_frame)
     200      200       20     4         /opt/nanosplus-secure-sdk/arch/st33k1/lib/libc.a(lib_a-strcmp.o):(.debug_frame)
     220      220       28     4         /opt/nanosplus-secure-sdk/arch/st33k1/lib/libc.a(lib_a-strncpy.o):(.debug_frame)
       0        0        6     1 ledger.target
       0        0        6     1         build/nanos2/obj/sdk/src/app_metadata.o:(ledger.target)
       0        0        6     1                 target
       0        0        d     1 ledger.target_name
       0        0        d     1         build/nanos2/obj/sdk/src/app_metadata.o:(ledger.target_name)
       0        0        d     1                 target_name
       0        0        a     1 ledger.target_id
       0        0        a     1         build/nanos2/obj/sdk/src/app_metadata.o:(ledger.target_id)
       0        0        a     1                 target_id
       0        0        7     1 ledger.app_name
       0        0        7     1         build/nanos2/obj/sdk/src/app_metadata.o:(ledger.app_name)
       0        0        7     1                 app_name
       0        0        5     1 ledger.app_version
       0        0        5     1         build/nanos2/obj/sdk/src/app_metadata.o:(ledger.app_version)
       0        0        5     1                 app_version
       0        0        2     1 ledger.api_level
       0        0        2     1         build/nanos2/obj/sdk/src/app_metadata.o:(ledger.api_level)
       0        0        2     1                 api_level
       0        0       11     1 ledger.sdk_name
       0        0       11     1         build/nanos2/obj/sdk/src/app_metadata.o:(ledger.sdk_name)
       0        0       11     1                 sdk_name
       0        0        8     1 ledger.sdk_version
       0        0        8     1         build/nanos2/obj/sdk/src/app_metadata.o:(ledger.sdk_version)
       0        0        8     1                 sdk_version
       0        0       28     1 ledger.sdk_hash
       0        0       28     1         build/nanos2/obj/sdk/src/app_metadata.o:(ledger.sdk_hash)
       0        0       28     1                 sdk_hash
       0        0        4     1 ledger.sdk_graphics
       0        0        4     1         build/nanos2/obj/sdk/src/app_metadata.o:(ledger.sdk_graphics)
       0        0        4     1                 sdk_graphics
d0000010 d0000010        0     1 PROVIDE ( _nvram = ABSOLUTE ( _nvram_start ) )
d0000010 d0000010        0     1 PROVIDE ( _envram = ABSOLUTE ( _nvram_end ) )
       0        0       45     1 .ARM.attributes
       0        0       45     1         build/nanos2/gen_src/glyphs.o:(.ARM.attributes)
       0        0     67d0     4 .symtab
       0        0     67d0     4         <internal>:(.symtab)
       0        0      105     1 .shstrtab
       0        0      105     1         <internal>:(.shstrtab)
       0        0     5146     1 .strtab
       0        0     5146     1         <internal>:(.strtab)
