     VMA      LMA     Size Align Out     In      Symbol
       0        0        0     1 PAGE_SIZE = 512
       0        0        0     1 STACK_MIN_SIZE = DEFINED ( stack_min_size ) ? stack_min_size : 1500
       0        0        0     1 END_STACK = ORIGIN ( SRAM ) + LENGTH ( SRAM )
c0de0000 c0de0000     fd68     8 .text
c0de0000 c0de0000        0     1         _text = .
c0de0000 c0de0000        0     1         _nvram_start = .
c0de0000 c0de0000       14     2         build/flex/obj/sdk/lib_standard_app/main.o:(.boot)
c0de0000 c0de0000        0     1                 $t.3
c0de0001 c0de0001       14     1                 main
c0de0014 c0de0014        0     1         _code = .
c0de0014 c0de0014       4a     2         build/flex/obj/app/src/address.o:(.text.address_from_pubkey)
c0de0014 c0de0014        0     1                 $t.0
c0de0015 c0de0015       4a     1                 address_from_pubkey
c0de005e c0de005e      224     2         build/flex/obj/app/src/apdu/dispatcher.o:(.text.apdu_dispatcher)
c0de005e c0de005e        0     1                 $t.0
c0de005f c0de005f      224     1                 apdu_dispatcher
c0de0282 c0de0282        e     2         build/flex/obj/app/src/apdu/dispatcher.o:(.text.io_send_sw)
c0de0282 c0de0282        0     1                 $t.1
c0de0283 c0de0283        e     1                 io_send_sw
c0de0290 c0de0290        8     2         build/flex/obj/app/src/apdu/dispatcher.o:(.text.OUTLINED_FUNCTION_0)
c0de0290 c0de0290        0     1                 $t.2
c0de0291 c0de0291        8     1                 OUTLINED_FUNCTION_0
c0de0298 c0de0298       88     4         build/flex/obj/app/src/app_main.o:(.text.app_main)
c0de0298 c0de0298        0     1                 $t.0
c0de0299 c0de0299       88     1                 app_main
c0de0310 c0de0310        0     1                 $d.1
c0de0320 c0de0320       28     4         build/flex/obj/app/src/handler/get_app_name.o:(.text.handler_get_app_name)
c0de0320 c0de0320        0     1                 $t.0
c0de0321 c0de0321       28     1                 handler_get_app_name
c0de0344 c0de0344        0     1                 $d.1
c0de0348 c0de0348       98     4         build/flex/obj/app/src/handler/get_public_key.o:(.text.handler_get_public_key)
c0de0348 c0de0348        0     1                 $t.0
c0de0349 c0de0349       98     1                 handler_get_public_key
c0de03dc c0de03dc        0     1                 $d.1
c0de03e0 c0de03e0        e     2         build/flex/obj/app/src/handler/get_public_key.o:(.text.io_send_sw)
c0de03e0 c0de03e0        0     1                 $t.2
c0de03e1 c0de03e1        e     1                 io_send_sw
c0de03ee c0de03ee       2e     2         build/flex/obj/app/src/handler/get_version.o:(.text.handler_get_version)
c0de03ee c0de03ee        0     1                 $t.0
c0de03ef c0de03ef       2e     1                 handler_get_version
c0de041c c0de041c      128     4         build/flex/obj/app/src/handler/sign_tx.o:(.text.handler_sign_tx)
c0de041c c0de041c        0     1                 $t.0
c0de041d c0de041d      128     1                 handler_sign_tx
c0de053c c0de053c        0     1                 $d.1
c0de0544 c0de0544        e     2         build/flex/obj/app/src/handler/sign_tx.o:(.text.io_send_sw)
c0de0544 c0de0544        0     1                 $t.2
c0de0545 c0de0545        e     1                 io_send_sw
c0de0552 c0de0552       10     2         build/flex/obj/app/src/handler/zkn_magicbox.o:(.text.handler_cmd_dummy)
c0de0552 c0de0552        0     1                 $t.0
c0de0553 c0de0553       10     1                 handler_cmd_dummy
c0de0562 c0de0562       16     2         build/flex/obj/app/src/handler/zkn_magicbox.o:(.text.io_send_response_pointer)
c0de0562 c0de0562        0     1                 $t.1
c0de0563 c0de0563       16     1                 io_send_response_pointer
c0de0578 c0de0578        e     2         build/flex/obj/app/src/handler/zkn_magicbox.o:(.text.io_send_sw)
c0de0578 c0de0578        0     1                 $t.2
c0de0579 c0de0579        e     1                 io_send_sw
c0de0586 c0de0586       30     2         build/flex/obj/app/src/handler/zkn_magicbox.o:(.text.handler_cmd_keccakH)
c0de0586 c0de0586        0     1                 $t.3
c0de0587 c0de0587       30     1                 handler_cmd_keccakH
c0de05b8 c0de05b8       70     4         build/flex/obj/app/src/handler/zkn_magicbox.o:(.text.handler_cmd_keccak_prng)
c0de05b8 c0de05b8        0     1                 $t.4
c0de05b9 c0de05b9       70     1                 handler_cmd_keccak_prng
c0de0624 c0de0624        0     1                 $d.5
c0de0628 c0de0628       1e     2         build/flex/obj/app/src/handler/zkn_magicbox.o:(.text.handler_cmd_sample_in_ball)
c0de0628 c0de0628        0     1                 $t.6
c0de0629 c0de0629       1e     1                 handler_cmd_sample_in_ball
c0de0646 c0de0646       28     2         build/flex/obj/app/src/handler/zkn_magicbox.o:(.text.handler_cmd_keygen_core_dilithium)
c0de0646 c0de0646        0     1                 $t.7
c0de0647 c0de0647       28     1                 handler_cmd_keygen_core_dilithium
c0de066e c0de066e       26     2         build/flex/obj/app/src/handler/zkn_magicbox.o:(.text.handler_cmd_keygen_dilithium)
c0de066e c0de066e        0     1                 $t.8
c0de066f c0de066f       26     1                 handler_cmd_keygen_dilithium
c0de0694 c0de0694       c8     4         build/flex/obj/app/src/handler/zkn_magicbox.o:(.text.handler_cmd_sign_dilithium)
c0de0694 c0de0694        0     1                 $t.9
c0de0695 c0de0695       c8     1                 handler_cmd_sign_dilithium
c0de0758 c0de0758        0     1                 $d.10
c0de075c c0de075c       44     4         build/flex/obj/app/src/handler/zkn_magicbox.o:(.text.handler_cmd_verify_dilithium)
c0de075c c0de075c        0     1                 $t.11
c0de075d c0de075d       44     1                 handler_cmd_verify_dilithium
c0de0798 c0de0798        0     1                 $d.12
c0de07a0 c0de07a0       20     4         build/flex/obj/app/src/handler/zkn_magicbox.o:(.text.handler_cmd_get_sig_chunk)
c0de07a0 c0de07a0        0     1                 $t.13
c0de07a1 c0de07a1       20     1                 handler_cmd_get_sig_chunk
c0de07bc c0de07bc        0     1                 $d.14
c0de07c0 c0de07c0       20     4         build/flex/obj/app/src/handler/zkn_magicbox.o:(.text.handler_cmd_get_pk_chunk)
c0de07c0 c0de07c0        0     1                 $t.15
c0de07c1 c0de07c1       20     1                 handler_cmd_get_pk_chunk
c0de07dc c0de07dc        0     1                 $d.16
c0de07e0 c0de07e0       4c     4         build/flex/obj/app/src/handler/zkn_magicbox.o:(.text.handler_get_mldsa_seed)
c0de07e0 c0de07e0        0     1                 $t.17
c0de07e1 c0de07e1       4c     1                 handler_get_mldsa_seed
c0de0824 c0de0824        0     1                 $d.18
c0de082c c0de082c        8     2         build/flex/obj/app/src/handler/zkn_magicbox.o:(.text.OUTLINED_FUNCTION_0)
c0de082c c0de082c        0     1                 $t.19
c0de082d c0de082d        8     1                 OUTLINED_FUNCTION_0
c0de0834 c0de0834        8     2         build/flex/obj/app/src/handler/zkn_magicbox.o:(.text.OUTLINED_FUNCTION_1)
c0de0834 c0de0834        0     1                 $t.20
c0de0835 c0de0835        8     1                 OUTLINED_FUNCTION_1
c0de083c c0de083c        8     2         build/flex/obj/app/src/handler/zkn_magicbox.o:(.text.OUTLINED_FUNCTION_2)
c0de083c c0de083c        0     1                 $t.21
c0de083d c0de083d        8     1                 OUTLINED_FUNCTION_2
c0de0844 c0de0844       44     4         build/flex/obj/app/src/helper/send_reponse.o:(.text.helper_send_response_pubkey)
c0de0844 c0de0844        0     1                 $t.0
c0de0845 c0de0845       44     1                 helper_send_response_pubkey
c0de0884 c0de0884        0     1                 $d.1
c0de0888 c0de0888       18     2         build/flex/obj/app/src/helper/send_reponse.o:(.text.io_send_response_pointer)
c0de0888 c0de0888        0     1                 $t.2
c0de0889 c0de0889       18     1                 io_send_response_pointer
c0de08a0 c0de08a0       44     4         build/flex/obj/app/src/helper/send_reponse.o:(.text.helper_send_response_sig)
c0de08a0 c0de08a0        0     1                 $t.3
c0de08a1 c0de08a1       44     1                 helper_send_response_sig
c0de08e0 c0de08e0        0     1                 $d.4
c0de08e4 c0de08e4       be     2         build/flex/obj/app/src/transaction/deserialize.o:(.text.transaction_deserialize)
c0de08e4 c0de08e4        0     1                 $t.0
c0de08e5 c0de08e5       be     1                 transaction_deserialize
c0de09a2 c0de09a2       3a     2         build/flex/obj/app/src/transaction/utils.o:(.text.transaction_utils_check_encoding)
c0de09a2 c0de09a2        0     1                 $t.0
c0de09a3 c0de09a3       3a     1                 transaction_utils_check_encoding
c0de09dc c0de09dc        e     2         build/flex/obj/app/src/ui/action/validate.o:(.text.validate_pubkey)
c0de09dc c0de09dc        0     1                 $t.0
c0de09dd c0de09dd        e     1                 validate_pubkey
c0de09ea c0de09ea        e     2         build/flex/obj/app/src/ui/action/validate.o:(.text.io_send_sw)
c0de09ea c0de09ea        0     1                 $t.1
c0de09eb c0de09eb        e     1                 io_send_sw
c0de09f8 c0de09f8       a4     4         build/flex/obj/app/src/ui/action/validate.o:(.text.validate_transaction)
c0de09f8 c0de09f8        0     1                 $t.2
c0de09f9 c0de09f9       a4     1                 validate_transaction
c0de0a98 c0de0a98        0     1                 $d.3
c0de0a9c c0de0a9c        6     2         build/flex/obj/app/src/ui/menu_nbgl.o:(.text.app_quit)
c0de0a9c c0de0a9c        0     1                 $t.0
c0de0a9d c0de0a9d        6     1                 app_quit
c0de0aa4 c0de0aa4       98     4         build/flex/obj/app/src/ui/menu_nbgl.o:(.text.ui_menu_main)
c0de0aa4 c0de0aa4        0     1                 $t.1
c0de0aa5 c0de0aa5       98     1                 ui_menu_main
c0de0b10 c0de0b10        0     1                 $d.2
c0de0b3c c0de0b3c       b4     4         build/flex/obj/app/src/ui/menu_nbgl.o:(.text.controls_callback)
c0de0b3c c0de0b3c        0     1                 $t.3
c0de0b3d c0de0b3d       b4     1                 controls_callback
c0de0bc8 c0de0bc8        0     1                 $d.4
c0de0bf0 c0de0bf0       7c     4         build/flex/obj/app/src/ui/menu_nbgl.o:(.text.review_warning_choice)
c0de0bf0 c0de0bf0        0     1                 $t.5
c0de0bf1 c0de0bf1       7c     1                 review_warning_choice
c0de0c50 c0de0c50        0     1                 $d.6
c0de0c6c c0de0c6c        6     2         build/flex/obj/app/src/ui/menu_nbgl.o:(.text.OUTLINED_FUNCTION_0)
c0de0c6c c0de0c6c        0     1                 $t.7
c0de0c6d c0de0c6d        6     1                 OUTLINED_FUNCTION_0
c0de0c74 c0de0c74       a4     4         build/flex/obj/app/src/ui/nbgl_display_address.o:(.text.ui_display_address)
c0de0c74 c0de0c74        0     1                 $t.0
c0de0c75 c0de0c75       a4     1                 ui_display_address
c0de0d04 c0de0d04        0     1                 $d.1
c0de0d18 c0de0d18        e     2         build/flex/obj/app/src/ui/nbgl_display_address.o:(.text.io_send_sw)
c0de0d18 c0de0d18        0     1                 $t.2
c0de0d19 c0de0d19        e     1                 io_send_sw
c0de0d28 c0de0d28       20     4         build/flex/obj/app/src/ui/nbgl_display_address.o:(.text.review_choice)
c0de0d28 c0de0d28        0     1                 $t.3
c0de0d29 c0de0d29       20     1                 review_choice
c0de0d44 c0de0d44        0     1                 $d.4
c0de0d48 c0de0d48      144     4         build/flex/obj/app/src/ui/nbgl_display_transaction.o:(.text.ui_display_transaction_bs_choice)
c0de0d48 c0de0d48        0     1                 $t.0
c0de0d49 c0de0d49      144     1                 ui_display_transaction_bs_choice
c0de0e60 c0de0e60        0     1                 $d.1
c0de0e8c c0de0e8c        e     2         build/flex/obj/app/src/ui/nbgl_display_transaction.o:(.text.io_send_sw)
c0de0e8c c0de0e8c        0     1                 $t.2
c0de0e8d c0de0e8d        e     1                 io_send_sw
c0de0e9c c0de0e9c       1c     4         build/flex/obj/app/src/ui/nbgl_display_transaction.o:(.text.review_choice)
c0de0e9c c0de0e9c        0     1                 $t.3
c0de0e9d c0de0e9d       1c     1                 review_choice
c0de0eb4 c0de0eb4        0     1                 $d.4
c0de0eb8 c0de0eb8        6     2         build/flex/obj/app/src/ui/nbgl_display_transaction.o:(.text.ui_display_blind_signed_transaction)
c0de0eb8 c0de0eb8        0     1                 $t.5
c0de0eb9 c0de0eb9        6     1                 ui_display_blind_signed_transaction
c0de0ebe c0de0ebe        6     2         build/flex/obj/app/src/ui/nbgl_display_transaction.o:(.text.ui_display_transaction)
c0de0ebe c0de0ebe        0     1                 $t.6
c0de0ebf c0de0ebf        6     1                 ui_display_transaction
c0de0ec4 c0de0ec4       10     2         build/flex/obj/app/src/zknox/dilithium/fips202.o:(.text.pqcrystals_dilithium_fips202_ref_shake128_init)
c0de0ec4 c0de0ec4        0     1                 $t.0
c0de0ec5 c0de0ec5       10     1                 pqcrystals_dilithium_fips202_ref_shake128_init
c0de0ed4 c0de0ed4       14     2         build/flex/obj/app/src/zknox/dilithium/fips202.o:(.text.keccak_init)
c0de0ed4 c0de0ed4        0     1                 $t.1
c0de0ed5 c0de0ed5       14     1                 keccak_init
c0de0ee8 c0de0ee8       16     2         build/flex/obj/app/src/zknox/dilithium/fips202.o:(.text.pqcrystals_dilithium_fips202_ref_shake128_absorb)
c0de0ee8 c0de0ee8        0     1                 $t.2
c0de0ee9 c0de0ee9       16     1                 pqcrystals_dilithium_fips202_ref_shake128_absorb
c0de0efe c0de0efe       7c     2         build/flex/obj/app/src/zknox/dilithium/fips202.o:(.text.keccak_absorb)
c0de0efe c0de0efe        0     1                 $t.3
c0de0eff c0de0eff       7c     1                 keccak_absorb
c0de0f7a c0de0f7a       16     2         build/flex/obj/app/src/zknox/dilithium/fips202.o:(.text.pqcrystals_dilithium_fips202_ref_shake128_finalize)
c0de0f7a c0de0f7a        0     1                 $t.4
c0de0f7b c0de0f7b       16     1                 pqcrystals_dilithium_fips202_ref_shake128_finalize
c0de0f90 c0de0f90       32     2         build/flex/obj/app/src/zknox/dilithium/fips202.o:(.text.keccak_finalize)
c0de0f90 c0de0f90        0     1                 $t.5
c0de0f91 c0de0f91       32     1                 keccak_finalize
c0de0fc2 c0de0fc2       16     2         build/flex/obj/app/src/zknox/dilithium/fips202.o:(.text.pqcrystals_dilithium_fips202_ref_shake128_squeeze)
c0de0fc2 c0de0fc2        0     1                 $t.6
c0de0fc3 c0de0fc3       16     1                 pqcrystals_dilithium_fips202_ref_shake128_squeeze
c0de0fd8 c0de0fd8       52     2         build/flex/obj/app/src/zknox/dilithium/fips202.o:(.text.keccak_squeeze)
c0de0fd8 c0de0fd8        0     1                 $t.7
c0de0fd9 c0de0fd9       52     1                 keccak_squeeze
c0de102a c0de102a       e8     2         build/flex/obj/app/src/zknox/dilithium/fips202.o:(.text.keccak_absorb_once)
c0de102a c0de102a        0     1                 $t.9
c0de102b c0de102b       e8     1                 keccak_absorb_once
c0de1112 c0de1112        6     2         build/flex/obj/app/src/zknox/dilithium/fips202.o:(.text.pqcrystals_dilithium_fips202_ref_shake128_squeezeblocks)
c0de1112 c0de1112        0     1                 $t.10
c0de1113 c0de1113        6     1                 pqcrystals_dilithium_fips202_ref_shake128_squeezeblocks
c0de1118 c0de1118       40     2         build/flex/obj/app/src/zknox/dilithium/fips202.o:(.text.keccak_squeezeblocks)
c0de1118 c0de1118        0     1                 $t.11
c0de1119 c0de1119       40     1                 keccak_squeezeblocks
c0de1158 c0de1158       10     2         build/flex/obj/app/src/zknox/dilithium/fips202.o:(.text.pqcrystals_dilithium_fips202_ref_shake256_init)
c0de1158 c0de1158        0     1                 $t.12
c0de1159 c0de1159       10     1                 pqcrystals_dilithium_fips202_ref_shake256_init
c0de1168 c0de1168       16     2         build/flex/obj/app/src/zknox/dilithium/fips202.o:(.text.pqcrystals_dilithium_fips202_ref_shake256_absorb)
c0de1168 c0de1168        0     1                 $t.13
c0de1169 c0de1169       16     1                 pqcrystals_dilithium_fips202_ref_shake256_absorb
c0de117e c0de117e       16     2         build/flex/obj/app/src/zknox/dilithium/fips202.o:(.text.pqcrystals_dilithium_fips202_ref_shake256_finalize)
c0de117e c0de117e        0     1                 $t.14
c0de117f c0de117f       16     1                 pqcrystals_dilithium_fips202_ref_shake256_finalize
c0de1194 c0de1194       16     2         build/flex/obj/app/src/zknox/dilithium/fips202.o:(.text.pqcrystals_dilithium_fips202_ref_shake256_squeeze)
c0de1194 c0de1194        0     1                 $t.15
c0de1195 c0de1195       16     1                 pqcrystals_dilithium_fips202_ref_shake256_squeeze
c0de11aa c0de11aa       1c     2         build/flex/obj/app/src/zknox/dilithium/fips202.o:(.text.pqcrystals_dilithium_fips202_ref_shake256_absorb_once)
c0de11aa c0de11aa        0     1                 $t.16
c0de11ab c0de11ab       1c     1                 pqcrystals_dilithium_fips202_ref_shake256_absorb_once
c0de11c6 c0de11c6        6     2         build/flex/obj/app/src/zknox/dilithium/fips202.o:(.text.pqcrystals_dilithium_fips202_ref_shake256_squeezeblocks)
c0de11c6 c0de11c6        0     1                 $t.17
c0de11c7 c0de11c7        6     1                 pqcrystals_dilithium_fips202_ref_shake256_squeezeblocks
c0de11cc c0de11cc       3a     2         build/flex/obj/app/src/zknox/dilithium/fips202.o:(.text.pqcrystals_dilithium_fips202_ref_shake256)
c0de11cc c0de11cc        0     1                 $t.19
c0de11cd c0de11cd       3a     1                 pqcrystals_dilithium_fips202_ref_shake256
c0de1208 c0de1208      e9a     4         build/flex/obj/app/src/zknox/dilithium/fips202.o:(.text.KeccakF1600_StatePermute)
c0de1208 c0de1208        0     1                 $t.21
c0de1209 c0de1209      e9a     1                 KeccakF1600_StatePermute
c0de1300 c0de1300        0     1                 $d.22
c0de1304 c0de1304        0     1                 $t.23
c0de20a2 c0de20a2       22     2         build/flex/obj/app/src/zknox/dilithium/fips202.o:(.text.store64)
c0de20a2 c0de20a2        0     1                 $t.24
c0de20a3 c0de20a3       22     1                 store64
c0de20c4 c0de20c4       10     2         build/flex/obj/app/src/zknox/dilithium/fips202.o:(.text.OUTLINED_FUNCTION_0)
c0de20c4 c0de20c4        0     1                 $t.26
c0de20c5 c0de20c5       10     1                 OUTLINED_FUNCTION_0
c0de20d4 c0de20d4       10     2         build/flex/obj/app/src/zknox/dilithium/fips202.o:(.text.OUTLINED_FUNCTION_2)
c0de20d4 c0de20d4        0     1                 $t.28
c0de20d5 c0de20d5       10     1                 OUTLINED_FUNCTION_2
c0de20e4 c0de20e4        6     2         build/flex/obj/app/src/zknox/dilithium/fips202.o:(.text.OUTLINED_FUNCTION_3)
c0de20e4 c0de20e4        0     1                 $t.29
c0de20e5 c0de20e5        6     1                 OUTLINED_FUNCTION_3
c0de20ea c0de20ea        8     2         build/flex/obj/app/src/zknox/dilithium/keccak256.o:(.text.keccak_init)
c0de20ea c0de20ea        0     1                 $t.1
c0de20eb c0de20eb        8     1                 keccak_init
c0de20f2 c0de20f2        4     2         build/flex/obj/app/src/zknox/dilithium/keccak256.o:(.text.keccak_update)
c0de20f2 c0de20f2        0     1                 $t.2
c0de20f3 c0de20f3        4     1                 keccak_update
c0de20f6 c0de20f6        4     2         build/flex/obj/app/src/zknox/dilithium/keccak256.o:(.text.keccak_final)
c0de20f6 c0de20f6        0     1                 $t.3
c0de20f7 c0de20f7        4     1                 keccak_final
c0de20fa c0de20fa       22     2         build/flex/obj/app/src/zknox/dilithium/keccak_prng.o:(.text.inner_keccak256_init)
c0de20fa c0de20fa        0     1                 $t.0
c0de20fb c0de20fb       22     1                 inner_keccak256_init
c0de211c c0de211c       24     2         build/flex/obj/app/src/zknox/dilithium/keccak_prng.o:(.text.inner_keccak256_inject)
c0de211c c0de211c        0     1                 $t.1
c0de211d c0de211d       24     1                 inner_keccak256_inject
c0de2140 c0de2140       2c     2         build/flex/obj/app/src/zknox/dilithium/keccak_prng.o:(.text.inner_keccak256_flip)
c0de2140 c0de2140        0     1                 $t.2
c0de2141 c0de2141       2c     1                 inner_keccak256_flip
c0de216c c0de216c      108     2         build/flex/obj/app/src/zknox/dilithium/keccak_prng.o:(.text.inner_keccak256_extract)
c0de216c c0de216c        0     1                 $t.3
c0de216d c0de216d      108     1                 inner_keccak256_extract
c0de2274 c0de2274       2c     2         build/flex/obj/app/src/zknox/dilithium/lowram.o:(.text.pqcrystals_dilithium2_lowram_pack_sig_h)
c0de2274 c0de2274        0     1                 $t.3
c0de2275 c0de2275       2c     1                 pqcrystals_dilithium2_lowram_pack_sig_h
c0de22a0 c0de22a0       18     2         build/flex/obj/app/src/zknox/dilithium/lowram.o:(.text.pqcrystals_dilithium2_lowram_pack_sig_h_zero)
c0de22a0 c0de22a0        0     1                 $t.4
c0de22a1 c0de22a1       18     1                 pqcrystals_dilithium2_lowram_pack_sig_h_zero
c0de22b8 c0de22b8       6a     2         build/flex/obj/app/src/zknox/dilithium/lowram.o:(.text.poly_challenge_compress)
c0de22b8 c0de22b8        0     1                 $t.8
c0de22b9 c0de22b9       6a     1                 poly_challenge_compress
c0de2322 c0de2322       64     2         build/flex/obj/app/src/zknox/dilithium/lowram.o:(.text.poly_challenge_decompress)
c0de2322 c0de2322        0     1                 $t.9
c0de2323 c0de2323       64     1                 poly_challenge_decompress
c0de2386 c0de2386       f4     2         build/flex/obj/app/src/zknox/dilithium/lowram.o:(.text.poly_schoolbook)
c0de2386 c0de2386        0     1                 $t.10
c0de2387 c0de2387       f4     1                 poly_schoolbook
c0de247a c0de247a       96     2         build/flex/obj/app/src/zknox/dilithium/lowram.o:(.text.polyt0_unpack_idx)
c0de247a c0de247a        0     1                 $t.11
c0de247b c0de247b       96     1                 polyt0_unpack_idx
c0de2510 c0de2510      108     4         build/flex/obj/app/src/zknox/dilithium/lowram.o:(.text.poly_schoolbook_t1)
c0de2510 c0de2510        0     1                 $t.12
c0de2511 c0de2511      108     1                 poly_schoolbook_t1
c0de2614 c0de2614        0     1                 $d.13
c0de2618 c0de2618       46     2         build/flex/obj/app/src/zknox/dilithium/lowram.o:(.text.polyt1_unpack_idx)
c0de2618 c0de2618        0     1                 $t.14
c0de2619 c0de2619       46     1                 polyt1_unpack_idx
c0de265e c0de265e       3c     2         build/flex/obj/app/src/zknox/dilithium/lowram.o:(.text.polyw_pack)
c0de265e c0de265e        0     1                 $t.15
c0de265f c0de265f       3c     1                 polyw_pack
c0de269a c0de269a       30     2         build/flex/obj/app/src/zknox/dilithium/lowram.o:(.text.polyw_unpack)
c0de269a c0de269a        0     1                 $t.16
c0de269b c0de269b       30     1                 polyw_unpack
c0de26ca c0de26ca       30     2         build/flex/obj/app/src/zknox/dilithium/lowram.o:(.text.polyw_sub)
c0de26ca c0de26ca        0     1                 $t.17
c0de26cb c0de26cb       30     1                 polyw_sub
c0de26fa c0de26fa       30     2         build/flex/obj/app/src/zknox/dilithium/lowram.o:(.text.poly_highbits)
c0de26fa c0de26fa        0     1                 $t.18
c0de26fb c0de26fb       30     1                 poly_highbits
c0de272c c0de272c       60     4         build/flex/obj/app/src/zknox/dilithium/lowram.o:(.text.poly_lowbits)
c0de272c c0de272c        0     1                 $t.19
c0de272d c0de272d       60     1                 poly_lowbits
c0de2780 c0de2780        0     1                 $d.20
c0de278c c0de278c        e     2         build/flex/obj/app/src/zknox/dilithium/lowram.o:(.text.unpack_sk_s1)
c0de278c c0de278c        0     1                 $t.21
c0de278d c0de278d        e     1                 unpack_sk_s1
c0de279a c0de279a       10     2         build/flex/obj/app/src/zknox/dilithium/lowram.o:(.text.unpack_sk_s2)
c0de279a c0de279a        0     1                 $t.22
c0de279b c0de279b       10     1                 unpack_sk_s2
c0de27ac c0de27ac       5c     4         build/flex/obj/app/src/zknox/dilithium/lowram.o:(.text.poly_uniform_pointwise_montgomery_polywadd_lowram)
c0de27ac c0de27ac        0     1                 $t.23
c0de27ad c0de27ad       5c     1                 poly_uniform_pointwise_montgomery_polywadd_lowram
c0de2804 c0de2804        0     1                 $d.24
c0de2808 c0de2808       2a     2         build/flex/obj/app/src/zknox/dilithium/lowram.o:(.text.polyw_add_idx)
c0de2808 c0de2808        0     1                 $t.25
c0de2809 c0de2809       2a     1                 polyw_add_idx
c0de2832 c0de2832       42     2         build/flex/obj/app/src/zknox/dilithium/lowram.o:(.text.poly_uniform_gamma1_lowram)
c0de2832 c0de2832        0     1                 $t.28
c0de2833 c0de2833       42     1                 poly_uniform_gamma1_lowram
c0de2874 c0de2874       58     2         build/flex/obj/app/src/zknox/dilithium/lowram.o:(.text.polyz_unpack_inplace)
c0de2874 c0de2874        0     1                 $t.29
c0de2875 c0de2875       58     1                 polyz_unpack_inplace
c0de28cc c0de28cc       46     2         build/flex/obj/app/src/zknox/dilithium/lowram.o:(.text.poly_uniform_gamma1_add_lowram)
c0de28cc c0de28cc        0     1                 $t.31
c0de28cd c0de28cd       46     1                 poly_uniform_gamma1_add_lowram
c0de2914 c0de2914       74     4         build/flex/obj/app/src/zknox/dilithium/lowram.o:(.text.poly_make_hint_lowram)
c0de2914 c0de2914        0     1                 $t.33
c0de2915 c0de2915       74     1                 poly_make_hint_lowram
c0de2984 c0de2984        0     1                 $d.34
c0de2988 c0de2988       7c     2         build/flex/obj/app/src/zknox/dilithium/lowram.o:(.text.unpack_sig_h_indices)
c0de2988 c0de2988        0     1                 $t.35
c0de2989 c0de2989       7c     1                 unpack_sig_h_indices
c0de2a04 c0de2a04       3e     2         build/flex/obj/app/src/zknox/dilithium/lowram.o:(.text.poly_use_hint_lowram)
c0de2a04 c0de2a04        0     1                 $t.36
c0de2a05 c0de2a05       3e     1                 poly_use_hint_lowram
c0de2a42 c0de2a42       10     2         build/flex/obj/app/src/zknox/dilithium/lowram.o:(.text.pack_pk_rho)
c0de2a42 c0de2a42        0     1                 $t.37
c0de2a43 c0de2a43       10     1                 pack_pk_rho
c0de2a52 c0de2a52        e     2         build/flex/obj/app/src/zknox/dilithium/lowram.o:(.text.pack_pk_t1)
c0de2a52 c0de2a52        0     1                 $t.38
c0de2a53 c0de2a53        e     1                 pack_pk_t1
c0de2a60 c0de2a60        e     2         build/flex/obj/app/src/zknox/dilithium/lowram.o:(.text.pack_sk_s1)
c0de2a60 c0de2a60        0     1                 $t.39
c0de2a61 c0de2a61        e     1                 pack_sk_s1
c0de2a6e c0de2a6e       10     2         build/flex/obj/app/src/zknox/dilithium/lowram.o:(.text.pack_sk_s2)
c0de2a6e c0de2a6e        0     1                 $t.40
c0de2a6f c0de2a6f       10     1                 pack_sk_s2
c0de2a7e c0de2a7e       10     2         build/flex/obj/app/src/zknox/dilithium/lowram.o:(.text.pack_sk_t0)
c0de2a7e c0de2a7e        0     1                 $t.41
c0de2a7f c0de2a7f       10     1                 pack_sk_t0
c0de2a8e c0de2a8e       10     2         build/flex/obj/app/src/zknox/dilithium/lowram.o:(.text.pack_sk_rho)
c0de2a8e c0de2a8e        0     1                 $t.42
c0de2a8f c0de2a8f       10     1                 pack_sk_rho
c0de2a9e c0de2a9e       12     2         build/flex/obj/app/src/zknox/dilithium/lowram.o:(.text.pack_sk_key)
c0de2a9e c0de2a9e        0     1                 $t.43
c0de2a9f c0de2a9f       12     1                 pack_sk_key
c0de2ab0 c0de2ab0       12     2         build/flex/obj/app/src/zknox/dilithium/lowram.o:(.text.pack_sk_tr)
c0de2ab0 c0de2ab0        0     1                 $t.44
c0de2ab1 c0de2ab1       12     1                 pack_sk_tr
c0de2ac2 c0de2ac2       b2     2         build/flex/obj/app/src/zknox/dilithium/lowram.o:(.text.poly_challenge_lowram)
c0de2ac2 c0de2ac2        0     1                 $t.45
c0de2ac3 c0de2ac3       b2     1                 poly_challenge_lowram
c0de2b74 c0de2b74       2c     2         build/flex/obj/app/src/zknox/dilithium/lowram.o:(.text.pqcrystals_dilithium2_lowram_poly_pointwise_acc_montgomery)
c0de2b74 c0de2b74        0     1                 $t.46
c0de2b75 c0de2b75       2c     1                 pqcrystals_dilithium2_lowram_poly_pointwise_acc_montgomery
c0de2ba0 c0de2ba0       18     2         build/flex/obj/app/src/zknox/dilithium/lowram.o:(.text.OUTLINED_FUNCTION_0)
c0de2ba0 c0de2ba0        0     1                 $t.47
c0de2ba1 c0de2ba1       18     1                 OUTLINED_FUNCTION_0
c0de2bb8 c0de2bb8       12     2         build/flex/obj/app/src/zknox/dilithium/lowram.o:(.text.OUTLINED_FUNCTION_1)
c0de2bb8 c0de2bb8        0     1                 $t.48
c0de2bb9 c0de2bb9       12     1                 OUTLINED_FUNCTION_1
c0de2bca c0de2bca        c     2         build/flex/obj/app/src/zknox/dilithium/lowram.o:(.text.OUTLINED_FUNCTION_2)
c0de2bca c0de2bca        0     1                 $t.49
c0de2bcb c0de2bcb        c     1                 OUTLINED_FUNCTION_2
c0de2bd6 c0de2bd6        8     2         build/flex/obj/app/src/zknox/dilithium/lowram.o:(.text.OUTLINED_FUNCTION_3)
c0de2bd6 c0de2bd6        0     1                 $t.50
c0de2bd7 c0de2bd7        8     1                 OUTLINED_FUNCTION_3
c0de2bde c0de2bde        a     2         build/flex/obj/app/src/zknox/dilithium/lowram.o:(.text.OUTLINED_FUNCTION_4)
c0de2bde c0de2bde        0     1                 $t.51
c0de2bdf c0de2bdf        a     1                 OUTLINED_FUNCTION_4
c0de2be8 c0de2be8       68     4         build/flex/obj/app/src/zknox/dilithium/ntt.o:(.text.pqcrystals_dilithium2_lowram_ntt)
c0de2be8 c0de2be8        0     1                 $t.0
c0de2be9 c0de2be9       68     1                 pqcrystals_dilithium2_lowram_ntt
c0de2c4c c0de2c4c        0     1                 $d.1
c0de2c50 c0de2c50       94     4         build/flex/obj/app/src/zknox/dilithium/ntt.o:(.text.pqcrystals_dilithium2_lowram_invntt_tomont)
c0de2c50 c0de2c50        0     1                 $t.2
c0de2c51 c0de2c51       94     1                 pqcrystals_dilithium2_lowram_invntt_tomont
c0de2ce0 c0de2ce0        0     1                 $d.3
c0de2ce4 c0de2ce4       1e     2         build/flex/obj/app/src/zknox/dilithium/poly.o:(.text.pqcrystals_dilithium2_lowram_poly_reduce)
c0de2ce4 c0de2ce4        0     1                 $t.0
c0de2ce5 c0de2ce5       1e     1                 pqcrystals_dilithium2_lowram_poly_reduce
c0de2d02 c0de2d02       1e     2         build/flex/obj/app/src/zknox/dilithium/poly.o:(.text.pqcrystals_dilithium2_lowram_poly_caddq)
c0de2d02 c0de2d02        0     1                 $t.1
c0de2d03 c0de2d03       1e     1                 pqcrystals_dilithium2_lowram_poly_caddq
c0de2d20 c0de2d20       1e     2         build/flex/obj/app/src/zknox/dilithium/poly.o:(.text.pqcrystals_dilithium2_lowram_poly_add)
c0de2d20 c0de2d20        0     1                 $t.2
c0de2d21 c0de2d21       1e     1                 pqcrystals_dilithium2_lowram_poly_add
c0de2d3e c0de2d3e        4     2         build/flex/obj/app/src/zknox/dilithium/poly.o:(.text.pqcrystals_dilithium2_lowram_poly_ntt)
c0de2d3e c0de2d3e        0     1                 $t.5
c0de2d3f c0de2d3f        4     1                 pqcrystals_dilithium2_lowram_poly_ntt
c0de2d42 c0de2d42        4     2         build/flex/obj/app/src/zknox/dilithium/poly.o:(.text.pqcrystals_dilithium2_lowram_poly_invntt_tomont)
c0de2d42 c0de2d42        0     1                 $t.6
c0de2d43 c0de2d43        4     1                 pqcrystals_dilithium2_lowram_poly_invntt_tomont
c0de2d46 c0de2d46       26     2         build/flex/obj/app/src/zknox/dilithium/poly.o:(.text.pqcrystals_dilithium2_lowram_poly_pointwise_montgomery)
c0de2d46 c0de2d46        0     1                 $t.7
c0de2d47 c0de2d47       26     1                 pqcrystals_dilithium2_lowram_poly_pointwise_montgomery
c0de2d6c c0de2d6c       1c     2         build/flex/obj/app/src/zknox/dilithium/poly.o:(.text.pqcrystals_dilithium2_lowram_poly_power2round)
c0de2d6c c0de2d6c        0     1                 $t.8
c0de2d6d c0de2d6d       1c     1                 pqcrystals_dilithium2_lowram_poly_power2round
c0de2d88 c0de2d88       2c     4         build/flex/obj/app/src/zknox/dilithium/poly.o:(.text.pqcrystals_dilithium2_lowram_poly_chknorm)
c0de2d88 c0de2d88        0     1                 $t.12
c0de2d89 c0de2d89       2c     1                 pqcrystals_dilithium2_lowram_poly_chknorm
c0de2db0 c0de2db0        0     1                 $d.13
c0de2db4 c0de2db4       82     2         build/flex/obj/app/src/zknox/dilithium/poly.o:(.text.pqcrystals_dilithium2_lowram_poly_uniform)
c0de2db4 c0de2db4        0     1                 $t.14
c0de2db5 c0de2db5       82     1                 pqcrystals_dilithium2_lowram_poly_uniform
c0de2e38 c0de2e38       44     4         build/flex/obj/app/src/zknox/dilithium/poly.o:(.text.rej_uniform)
c0de2e38 c0de2e38        0     1                 $t.15
c0de2e39 c0de2e39       44     1                 rej_uniform
c0de2e78 c0de2e78        0     1                 $d.16
c0de2e7c c0de2e7c       4c     2         build/flex/obj/app/src/zknox/dilithium/poly.o:(.text.pqcrystals_dilithium2_lowram_poly_uniform_eta)
c0de2e7c c0de2e7c        0     1                 $t.17
c0de2e7d c0de2e7d       4c     1                 pqcrystals_dilithium2_lowram_poly_uniform_eta
c0de2ec8 c0de2ec8       56     2         build/flex/obj/app/src/zknox/dilithium/poly.o:(.text.rej_eta)
c0de2ec8 c0de2ec8        0     1                 $t.18
c0de2ec9 c0de2ec9       56     1                 rej_eta
c0de2f1e c0de2f1e       a0     2         build/flex/obj/app/src/zknox/dilithium/poly.o:(.text.pqcrystals_dilithium2_lowram_polyz_unpack)
c0de2f1e c0de2f1e        0     1                 $t.20
c0de2f1f c0de2f1f       a0     1                 pqcrystals_dilithium2_lowram_polyz_unpack
c0de2fbe c0de2fbe       aa     2         build/flex/obj/app/src/zknox/dilithium/poly.o:(.text.pqcrystals_dilithium2_lowram_poly_challenge)
c0de2fbe c0de2fbe        0     1                 $t.21
c0de2fbf c0de2fbf       aa     1                 pqcrystals_dilithium2_lowram_poly_challenge
c0de3068 c0de3068       7c     2         build/flex/obj/app/src/zknox/dilithium/poly.o:(.text.pqcrystals_dilithium2_lowram_polyeta_pack)
c0de3068 c0de3068        0     1                 $t.22
c0de3069 c0de3069       7c     1                 pqcrystals_dilithium2_lowram_polyeta_pack
c0de30e4 c0de30e4       48     2         build/flex/obj/app/src/zknox/dilithium/poly.o:(.text.pqcrystals_dilithium2_lowram_polyt1_pack)
c0de30e4 c0de30e4        0     1                 $t.25
c0de30e5 c0de30e5       48     1                 pqcrystals_dilithium2_lowram_polyt1_pack
c0de312c c0de312c       aa     2         build/flex/obj/app/src/zknox/dilithium/poly.o:(.text.pqcrystals_dilithium2_lowram_polyt0_pack)
c0de312c c0de312c        0     1                 $t.27
c0de312d c0de312d       aa     1                 pqcrystals_dilithium2_lowram_polyt0_pack
c0de31d6 c0de31d6       62     2         build/flex/obj/app/src/zknox/dilithium/poly.o:(.text.pqcrystals_dilithium2_lowram_polyz_pack)
c0de31d6 c0de31d6        0     1                 $t.29
c0de31d7 c0de31d7       62     1                 pqcrystals_dilithium2_lowram_polyz_pack
c0de3238 c0de3238       46     2         build/flex/obj/app/src/zknox/dilithium/poly.o:(.text.pqcrystals_dilithium2_lowram_polyw1_pack)
c0de3238 c0de3238        0     1                 $t.30
c0de3239 c0de3239       46     1                 pqcrystals_dilithium2_lowram_polyw1_pack
c0de327e c0de327e        a     2         build/flex/obj/app/src/zknox/dilithium/poly.o:(.text.OUTLINED_FUNCTION_0)
c0de327e c0de327e        0     1                 $t.31
c0de327f c0de327f        a     1                 OUTLINED_FUNCTION_0
c0de3288 c0de3288        c     2         build/flex/obj/app/src/zknox/dilithium/poly.o:(.text.OUTLINED_FUNCTION_1)
c0de3288 c0de3288        0     1                 $t.32
c0de3289 c0de3289        c     1                 OUTLINED_FUNCTION_1
c0de3294 c0de3294        4     2         build/flex/obj/app/src/zknox/dilithium/randombytes.o:(.text.randombytes)
c0de3294 c0de3294        0     1                 $t.0
c0de3295 c0de3295        4     1                 randombytes
c0de3298 c0de3298       18     4         build/flex/obj/app/src/zknox/dilithium/reduce.o:(.text.pqcrystals_dilithium2_lowram_montgomery_reduce)
c0de3298 c0de3298        0     1                 $t.0
c0de3299 c0de3299       18     1                 pqcrystals_dilithium2_lowram_montgomery_reduce
c0de32a8 c0de32a8        0     1                 $d.1
c0de32b0 c0de32b0       14     4         build/flex/obj/app/src/zknox/dilithium/reduce.o:(.text.pqcrystals_dilithium2_lowram_reduce32)
c0de32b0 c0de32b0        0     1                 $t.2
c0de32b1 c0de32b1       14     1                 pqcrystals_dilithium2_lowram_reduce32
c0de32c0 c0de32c0        0     1                 $d.3
c0de32c4 c0de32c4       10     4         build/flex/obj/app/src/zknox/dilithium/reduce.o:(.text.pqcrystals_dilithium2_lowram_caddq)
c0de32c4 c0de32c4        0     1                 $t.4
c0de32c5 c0de32c5       10     1                 pqcrystals_dilithium2_lowram_caddq
c0de32d0 c0de32d0        0     1                 $d.5
c0de32d4 c0de32d4       20     4         build/flex/obj/app/src/zknox/dilithium/reduce.o:(.text.pqcrystals_dilithium2_lowram_freeze)
c0de32d4 c0de32d4        0     1                 $t.6
c0de32d5 c0de32d5       20     1                 pqcrystals_dilithium2_lowram_freeze
c0de32ec c0de32ec        0     1                 $d.7
c0de32f4 c0de32f4       14     2         build/flex/obj/app/src/zknox/dilithium/rounding.o:(.text.pqcrystals_dilithium2_lowram_power2round)
c0de32f4 c0de32f4        0     1                 $t.0
c0de32f5 c0de32f5       14     1                 pqcrystals_dilithium2_lowram_power2round
c0de3308 c0de3308       40     4         build/flex/obj/app/src/zknox/dilithium/rounding.o:(.text.pqcrystals_dilithium2_lowram_decompose)
c0de3308 c0de3308        0     1                 $t.1
c0de3309 c0de3309       40     1                 pqcrystals_dilithium2_lowram_decompose
c0de333c c0de333c        0     1                 $d.2
c0de3348 c0de3348       2a     2         build/flex/obj/app/src/zknox/dilithium/rounding.o:(.text.pqcrystals_dilithium2_lowram_use_hint)
c0de3348 c0de3348        0     1                 $t.5
c0de3349 c0de3349       2a     1                 pqcrystals_dilithium2_lowram_use_hint
c0de3372 c0de3372       22     2         build/flex/obj/app/src/zknox/dilithium/sign.o:(.text.pqcrystals_dilithium2_lowram_keypair)
c0de3372 c0de3372        0     1                 $t.0
c0de3373 c0de3373       22     1                 pqcrystals_dilithium2_lowram_keypair
c0de3394 c0de3394      1ac     4         build/flex/obj/app/src/zknox/dilithium/sign.o:(.text.crypto_sign_keypair_core)
c0de3394 c0de3394        0     1                 $t.1
c0de3395 c0de3395      1ac     1                 crypto_sign_keypair_core
c0de353c c0de353c        0     1                 $d.2
c0de3540 c0de3540       58     4         build/flex/obj/app/src/zknox/dilithium/sign.o:(.text.crypto_sign_signature_init)
c0de3540 c0de3540        0     1                 $t.3
c0de3541 c0de3541       58     1                 crypto_sign_signature_init
c0de3590 c0de3590        0     1                 $d.4
c0de3598 c0de3598       18     4         build/flex/obj/app/src/zknox/dilithium/sign.o:(.text.crypto_sign_signature_absorb)
c0de3598 c0de3598        0     1                 $t.5
c0de3599 c0de3599       18     1                 crypto_sign_signature_absorb
c0de35ac c0de35ac        0     1                 $d.6
c0de35b0 c0de35b0      318     4         build/flex/obj/app/src/zknox/dilithium/sign.o:(.text.crypto_sign_signature_core)
c0de35b0 c0de35b0        0     1                 $t.7
c0de35b1 c0de35b1      318     1                 crypto_sign_signature_core
c0de38bc c0de38bc        0     1                 $d.8
c0de38c8 c0de38c8      230     4         build/flex/obj/app/src/zknox/dilithium/sign.o:(.text.pqcrystals_dilithium2_lowram_verify)
c0de38c8 c0de38c8        0     1                 $t.11
c0de38c9 c0de38c9      230     1                 pqcrystals_dilithium2_lowram_verify
c0de3aec c0de3aec        0     1                 $d.12
c0de3af8 c0de3af8       5c     2         build/flex/obj/app/src/zknox/dilithium/sign.o:(.text.pqcrystals_dilithium2_lowram_open)
c0de3af8 c0de3af8        0     1                 $t.13
c0de3af9 c0de3af9       5c     1                 pqcrystals_dilithium2_lowram_open
c0de3b54 c0de3b54        a     2         build/flex/obj/app/src/zknox/dilithium/sign.o:(.text.OUTLINED_FUNCTION_0)
c0de3b54 c0de3b54        0     1                 $t.14
c0de3b55 c0de3b55        a     1                 OUTLINED_FUNCTION_0
c0de3b60 c0de3b60       7c     4         build/flex/obj/app/src/zknox/dilithium/smallntt_3329.o:(.text.small_ntt)
c0de3b60 c0de3b60        0     1                 $t.0
c0de3b61 c0de3b61       7c     1                 small_ntt
c0de3bd4 c0de3bd4        0     1                 $d.1
c0de3bdc c0de3bdc       e4     4         build/flex/obj/app/src/zknox/dilithium/smallntt_3329.o:(.text.small_invntt_tomont)
c0de3bdc c0de3bdc        0     1                 $t.2
c0de3bdd c0de3bdd       e4     1                 small_invntt_tomont
c0de3cb4 c0de3cb4        0     1                 $d.3
c0de3cc0 c0de3cc0       78     4         build/flex/obj/app/src/zknox/dilithium/smallntt_3329.o:(.text.small_basemul)
c0de3cc0 c0de3cc0        0     1                 $t.4
c0de3cc1 c0de3cc1       78     1                 small_basemul
c0de3d34 c0de3d34        0     1                 $d.5
c0de3d38 c0de3d38       18     2         build/flex/obj/app/src/zknox/dilithium/smallpoly.o:(.text.poly_small_ntt_copy)
c0de3d38 c0de3d38        0     1                 $t.0
c0de3d39 c0de3d39       18     1                 poly_small_ntt_copy
c0de3d50 c0de3d50       58     4         build/flex/obj/app/src/zknox/dilithium/smallpoly.o:(.text.poly_small_basemul)
c0de3d50 c0de3d50        0     1                 $t.3
c0de3d51 c0de3d51       58     1                 poly_small_basemul
c0de3da4 c0de3da4        0     1                 $d.4
c0de3da8 c0de3da8       22     2         build/flex/obj/app/src/zknox/dilithium/smallpoly.o:(.text.poly_small_basemul_invntt)
c0de3da8 c0de3da8        0     1                 $t.5
c0de3da9 c0de3da9       22     1                 poly_small_basemul_invntt
c0de3dca c0de3dca       a4     2         build/flex/obj/app/src/zknox/dilithium/smallpoly.o:(.text.small_polyeta_unpack)
c0de3dca c0de3dca        0     1                 $t.7
c0de3dcb c0de3dcb       a4     1                 small_polyeta_unpack
c0de3e6e c0de3e6e       28     2         build/flex/obj/app/src/zknox/dilithium/symmetric-shake.o:(.text.pqcrystals_dilithium2_lowram_dilithium_shake128_stream_init)
c0de3e6e c0de3e6e        0     1                 $t.0
c0de3e6f c0de3e6f       28     1                 pqcrystals_dilithium2_lowram_dilithium_shake128_stream_init
c0de3e96 c0de3e96       28     2         build/flex/obj/app/src/zknox/dilithium/symmetric-shake.o:(.text.pqcrystals_dilithium2_lowram_dilithium_shake256_stream_init)
c0de3e96 c0de3e96        0     1                 $t.1
c0de3e97 c0de3e97       28     1                 pqcrystals_dilithium2_lowram_dilithium_shake256_stream_init
c0de3ebe c0de3ebe       12     2         build/flex/obj/app/src/zknox/dilithium/symmetric-shake.o:(.text.OUTLINED_FUNCTION_0)
c0de3ebe c0de3ebe        0     1                 $t.2
c0de3ebf c0de3ebf       12     1                 OUTLINED_FUNCTION_0
c0de3ed0 c0de3ed0       d6     2         build/flex/obj/sdk/io/src/os_io_default_apdu.o:(.text.os_io_handle_default_apdu)
c0de3ed0 c0de3ed0        0     1                 $t.0
c0de3ed1 c0de3ed1       d6     1                 os_io_handle_default_apdu
c0de3fa6 c0de3fa6        e     2         build/flex/obj/sdk/io/src/os_io_default_apdu.o:(.text.OUTLINED_FUNCTION_0)
c0de3fa6 c0de3fa6        0     1                 $t.1
c0de3fa7 c0de3fa7        e     1                 OUTLINED_FUNCTION_0
c0de3fb4 c0de3fb4       54     2         build/flex/obj/sdk/io/src/os_io_seph_cmd.o:(.text.os_io_seph_cmd_piezo_play_tune)
c0de3fb4 c0de3fb4        0     1                 $t.20
c0de3fb5 c0de3fb5       54     1                 os_io_seph_cmd_piezo_play_tune
c0de4008 c0de4008        6     2         build/flex/obj/sdk/io/src/os_io_seph_cmd.o:(.text.OUTLINED_FUNCTION_1)
c0de4008 c0de4008        0     1                 $t.31
c0de4009 c0de4009        6     1                 OUTLINED_FUNCTION_1
c0de4010 c0de4010       98     4         build/flex/obj/sdk/io/src/os_io_seph_ux.o:(.text.io_process_itc_ux_event)
c0de4010 c0de4010        0     1                 $t.2
c0de4011 c0de4011       98     1                 io_process_itc_ux_event
c0de40a4 c0de40a4        0     1                 $d.3
c0de40a8 c0de40a8       34     4         build/flex/obj/sdk/io_legacy/src/os_io_legacy.o:(.text.io_legacy_apdu_tx)
c0de40a8 c0de40a8        0     1                 $t.12
c0de40a9 c0de40a9       34     1                 io_legacy_apdu_tx
c0de40d0 c0de40d0        0     1                 $d.13
c0de40dc c0de40dc      258     4         build/flex/obj/sdk/io_legacy/src/os_io_legacy.o:(.text.io_legacy_apdu_rx)
c0de40dc c0de40dc        0     1                 $t.14
c0de40dd c0de40dd      258     1                 io_legacy_apdu_rx
c0de4314 c0de4314        0     1                 $d.15
c0de4334 c0de4334       40     4         build/flex/obj/sdk/io_legacy/src/os_io_legacy.o:(.text.io_seproxyhal_init)
c0de4334 c0de4334        0     1                 $t.16
c0de4335 c0de4335       40     1                 io_seproxyhal_init
c0de436c c0de436c        0     1                 $d.17
c0de4374 c0de4374        c     2         build/flex/obj/sdk/io_legacy/src/os_io_legacy.o:(.text.OUTLINED_FUNCTION_0)
c0de4374 c0de4374        0     1                 $t.21
c0de4375 c0de4375        c     1                 OUTLINED_FUNCTION_0
c0de4380 c0de4380       42     2         build/flex/obj/sdk/lib_nbgl/src/nbgl_layout.o:(.text.layoutAddCallbackObj)
c0de4380 c0de4380        0     1                 $t.0
c0de4381 c0de4381       42     1                 layoutAddCallbackObj
c0de43c4 c0de43c4      1d0     4         build/flex/obj/sdk/lib_nbgl/src/nbgl_layout.o:(.text.nbgl_layoutGet)
c0de43c4 c0de43c4        0     1                 $t.2
c0de43c5 c0de43c5      1d0     1                 nbgl_layoutGet
c0de4584 c0de4584        0     1                 $d.3
c0de4594 c0de4594      2e8     2         build/flex/obj/sdk/lib_nbgl/src/nbgl_layout.o:(.text.touchCallback)
c0de4594 c0de4594        0     1                 $t.4
c0de4595 c0de4595      2e8     1                 touchCallback
c0de487c c0de487c      624     4         build/flex/obj/sdk/lib_nbgl/src/nbgl_layout.o:(.text.nbgl_layoutAddUpFooter)
c0de487c c0de487c        0     1                 $t.5
c0de487d c0de487d      624     1                 nbgl_layoutAddUpFooter
c0de4cb0 c0de4cb0        0     1                 $d.6
c0de4cb8 c0de4cb8        0     1                 $t.7
c0de4ea0 c0de4ea0       7e     2         build/flex/obj/sdk/lib_nbgl/src/nbgl_layout.o:(.text.nbgl_layoutAddSwipe)
c0de4ea0 c0de4ea0        0     1                 $t.8
c0de4ea1 c0de4ea1       7e     1                 nbgl_layoutAddSwipe
c0de4f1e c0de4f1e       36     2         build/flex/obj/sdk/lib_nbgl/src/nbgl_layout.o:(.text.addSwipeInternal)
c0de4f1e c0de4f1e        0     1                 $t.9
c0de4f1f c0de4f1f       36     1                 addSwipeInternal
c0de4f54 c0de4f54       78     2         build/flex/obj/sdk/lib_nbgl/src/nbgl_layout.o:(.text.nbgl_layoutAddTopRightButton)
c0de4f54 c0de4f54        0     1                 $t.10
c0de4f55 c0de4f55       78     1                 nbgl_layoutAddTopRightButton
c0de4fcc c0de4fcc      714     2         build/flex/obj/sdk/lib_nbgl/src/nbgl_layout.o:(.text.nbgl_layoutAddExtendedFooter)
c0de4fcc c0de4fcc        0     1                 $t.12
c0de4fcd c0de4fcd      714     1                 nbgl_layoutAddExtendedFooter
c0de56e0 c0de56e0       3e     2         build/flex/obj/sdk/lib_nbgl/src/nbgl_layout.o:(.text.nbgl_layoutAddBottomButton)
c0de56e0 c0de56e0        0     1                 $t.13
c0de56e1 c0de56e1       3e     1                 nbgl_layoutAddBottomButton
c0de571e c0de571e       4a     2         build/flex/obj/sdk/lib_nbgl/src/nbgl_layout.o:(.text.nbgl_layoutAddTouchableBar)
c0de571e c0de571e        0     1                 $t.14
c0de571f c0de571f       4a     1                 nbgl_layoutAddTouchableBar
c0de5768 c0de5768      3b8     4         build/flex/obj/sdk/lib_nbgl/src/nbgl_layout.o:(.text.addListItem)
c0de5768 c0de5768        0     1                 $t.15
c0de5769 c0de5769      3b8     1                 addListItem
c0de5b1c c0de5b1c        0     1                 $d.16
c0de5b20 c0de5b20       44     2         build/flex/obj/sdk/lib_nbgl/src/nbgl_layout.o:(.text.nbgl_layoutAddSwitch)
c0de5b20 c0de5b20        0     1                 $t.17
c0de5b21 c0de5b21       44     1                 nbgl_layoutAddSwitch
c0de5b64 c0de5b64       10     2         build/flex/obj/sdk/lib_nbgl/src/nbgl_layout.o:(.text.nbgl_layoutAddText)
c0de5b64 c0de5b64        0     1                 $t.18
c0de5b65 c0de5b65       10     1                 nbgl_layoutAddText
c0de5b74 c0de5b74      280     4         build/flex/obj/sdk/lib_nbgl/src/nbgl_layout.o:(.text.addText)
c0de5b74 c0de5b74        0     1                 $t.19
c0de5b75 c0de5b75      280     1                 addText
c0de5dec c0de5dec        0     1                 $d.20
c0de5df4 c0de5df4       10     2         build/flex/obj/sdk/lib_nbgl/src/nbgl_layout.o:(.text.nbgl_layoutAddTextWithAlias)
c0de5df4 c0de5df4        0     1                 $t.21
c0de5df5 c0de5df5       10     1                 nbgl_layoutAddTextWithAlias
c0de5e04 c0de5e04      180     4         build/flex/obj/sdk/lib_nbgl/src/nbgl_layout.o:(.text.nbgl_layoutAddTextContent)
c0de5e04 c0de5e04        0     1                 $t.24
c0de5e05 c0de5e05      180     1                 nbgl_layoutAddTextContent
c0de5f78 c0de5f78        0     1                 $d.25
c0de5f84 c0de5f84      224     4         build/flex/obj/sdk/lib_nbgl/src/nbgl_layout.o:(.text.nbgl_layoutAddRadioChoice)
c0de5f84 c0de5f84        0     1                 $t.26
c0de5f85 c0de5f85      224     1                 nbgl_layoutAddRadioChoice
c0de61a0 c0de61a0        0     1                 $d.27
c0de61a8 c0de61a8       28     2         build/flex/obj/sdk/lib_nbgl/src/nbgl_layout.o:(.text.createHorizontalLine)
c0de61a8 c0de61a8        0     1                 $t.28
c0de61a9 c0de61a9       28     1                 createHorizontalLine
c0de61d0 c0de61d0       7a     2         build/flex/obj/sdk/lib_nbgl/src/nbgl_layout.o:(.text.nbgl_layoutAddCenteredInfo)
c0de61d0 c0de61d0        0     1                 $t.29
c0de61d1 c0de61d1       7a     1                 nbgl_layoutAddCenteredInfo
c0de624c c0de624c      3e0     4         build/flex/obj/sdk/lib_nbgl/src/nbgl_layout.o:(.text.addContentCenter)
c0de624c c0de624c        0     1                 $t.30
c0de624d c0de624d      3e0     1                 addContentCenter
c0de6628 c0de6628        0     1                 $d.31
c0de662c c0de662c       12     2         build/flex/obj/sdk/lib_nbgl/src/nbgl_layout.o:(.text.nbgl_layoutAddContentCenter)
c0de662c c0de662c        0     1                 $t.32
c0de662d c0de662d       12     1                 nbgl_layoutAddContentCenter
c0de663e c0de663e      2e6     2         build/flex/obj/sdk/lib_nbgl/src/nbgl_layout.o:(.text.nbgl_layoutAddQRCode)
c0de663e c0de663e        0     1                 $t.35
c0de663f c0de663f      2e6     1                 nbgl_layoutAddQRCode
c0de6924 c0de6924       2c     2         build/flex/obj/sdk/lib_nbgl/src/nbgl_layout.o:(.text.nbgl_layoutAddChoiceButtons)
c0de6924 c0de6924        0     1                 $t.36
c0de6925 c0de6925       2c     1                 nbgl_layoutAddChoiceButtons
c0de6950 c0de6950       26     2         build/flex/obj/sdk/lib_nbgl/src/nbgl_layout.o:(.text.nbgl_layoutAddHorizontalButtons)
c0de6950 c0de6950        0     1                 $t.37
c0de6951 c0de6951       26     1                 nbgl_layoutAddHorizontalButtons
c0de6978 c0de6978      328     4         build/flex/obj/sdk/lib_nbgl/src/nbgl_layout.o:(.text.nbgl_layoutAddTagValueList)
c0de6978 c0de6978        0     1                 $t.38
c0de6979 c0de6979      328     1                 nbgl_layoutAddTagValueList
c0de6c98 c0de6c98        0     1                 $d.39
c0de6ca0 c0de6ca0       24     2         build/flex/obj/sdk/lib_nbgl/src/nbgl_layout.o:(.text.nbgl_layoutAddSeparationLine)
c0de6ca0 c0de6ca0        0     1                 $t.42
c0de6ca1 c0de6ca1       24     1                 nbgl_layoutAddSeparationLine
c0de6cc4 c0de6cc4      1be     2         build/flex/obj/sdk/lib_nbgl/src/nbgl_layout.o:(.text.nbgl_layoutAddButton)
c0de6cc4 c0de6cc4        0     1                 $t.43
c0de6cc5 c0de6cc5      1be     1                 nbgl_layoutAddButton
c0de6e82 c0de6e82       24     2         build/flex/obj/sdk/lib_nbgl/src/nbgl_layout.o:(.text.nbgl_layoutAddLongPressButton)
c0de6e82 c0de6e82        0     1                 $t.44
c0de6e83 c0de6e83       24     1                 nbgl_layoutAddLongPressButton
c0de6ea6 c0de6ea6       24     2         build/flex/obj/sdk/lib_nbgl/src/nbgl_layout.o:(.text.nbgl_layoutAddFooter)
c0de6ea6 c0de6ea6        0     1                 $t.45
c0de6ea7 c0de6ea7       24     1                 nbgl_layoutAddFooter
c0de6eca c0de6eca       28     2         build/flex/obj/sdk/lib_nbgl/src/nbgl_layout.o:(.text.nbgl_layoutAddSplitFooter)
c0de6eca c0de6eca        0     1                 $t.46
c0de6ecb c0de6ecb       28     1                 nbgl_layoutAddSplitFooter
c0de6ef4 c0de6ef4      488     4         build/flex/obj/sdk/lib_nbgl/src/nbgl_layout.o:(.text.nbgl_layoutAddHeader)
c0de6ef4 c0de6ef4        0     1                 $t.47
c0de6ef5 c0de6ef5      488     1                 nbgl_layoutAddHeader
c0de7378 c0de7378        0     1                 $d.48
c0de737c c0de737c       34     2         build/flex/obj/sdk/lib_nbgl/src/nbgl_layout.o:(.text.nbgl_layoutAddProgressIndicator)
c0de737c c0de737c        0     1                 $t.49
c0de737d c0de737d       34     1                 nbgl_layoutAddProgressIndicator
c0de73b0 c0de73b0      254     4         build/flex/obj/sdk/lib_nbgl/src/nbgl_layout.o:(.text.nbgl_layoutAddSpinner)
c0de73b0 c0de73b0        0     1                 $t.50
c0de73b1 c0de73b1      254     1                 nbgl_layoutAddSpinner
c0de75fc c0de75fc        0     1                 $d.51
c0de7604 c0de7604       6c     4         build/flex/obj/sdk/lib_nbgl/src/nbgl_layout.o:(.text.spinnerTickerCallback)
c0de7604 c0de7604        0     1                 $t.52
c0de7605 c0de7605       6c     1                 spinnerTickerCallback
c0de766c c0de766c        0     1                 $d.53
c0de7670 c0de7670      148     2         build/flex/obj/sdk/lib_nbgl/src/nbgl_layout.o:(.text.nbgl_layoutUpdateSpinner)
c0de7670 c0de7670        0     1                 $t.54
c0de7671 c0de7671      148     1                 nbgl_layoutUpdateSpinner
c0de77b8 c0de77b8       5a     2         build/flex/obj/sdk/lib_nbgl/src/nbgl_layout.o:(.text.nbgl_layoutDraw)
c0de77b8 c0de77b8        0     1                 $t.55
c0de77b9 c0de77b9       5a     1                 nbgl_layoutDraw
c0de7814 c0de7814       60     4         build/flex/obj/sdk/lib_nbgl/src/nbgl_layout.o:(.text.nbgl_layoutRelease)
c0de7814 c0de7814        0     1                 $t.56
c0de7815 c0de7815       60     1                 nbgl_layoutRelease
c0de7870 c0de7870        0     1                 $d.57
c0de7874 c0de7874       4c     4         build/flex/obj/sdk/lib_nbgl/src/nbgl_layout.o:(.text.getLayoutAndLayoutObj)
c0de7874 c0de7874        0     1                 $t.58
c0de7875 c0de7875       4c     1                 getLayoutAndLayoutObj
c0de78bc c0de78bc        0     1                 $d.59
c0de78c0 c0de78c0      104     4         build/flex/obj/sdk/lib_nbgl/src/nbgl_layout.o:(.text.animTickerCallback)
c0de78c0 c0de78c0        0     1                 $t.60
c0de78c1 c0de78c1      104     1                 animTickerCallback
c0de79c0 c0de79c0        0     1                 $d.61
c0de79c4 c0de79c4        8     2         build/flex/obj/sdk/lib_nbgl/src/nbgl_layout.o:(.text.OUTLINED_FUNCTION_0)
c0de79c4 c0de79c4        0     1                 $t.62
c0de79c5 c0de79c5        8     1                 OUTLINED_FUNCTION_0
c0de79cc c0de79cc        c     2         build/flex/obj/sdk/lib_nbgl/src/nbgl_layout.o:(.text.OUTLINED_FUNCTION_1)
c0de79cc c0de79cc        0     1                 $t.63
c0de79cd c0de79cd        c     1                 OUTLINED_FUNCTION_1
c0de79d8 c0de79d8       28     2         build/flex/obj/sdk/lib_nbgl/src/nbgl_layout.o:(.text.OUTLINED_FUNCTION_2)
c0de79d8 c0de79d8        0     1                 $t.64
c0de79d9 c0de79d9       28     1                 OUTLINED_FUNCTION_2
c0de7a00 c0de7a00       26     2         build/flex/obj/sdk/lib_nbgl/src/nbgl_layout.o:(.text.OUTLINED_FUNCTION_3)
c0de7a00 c0de7a00        0     1                 $t.65
c0de7a01 c0de7a01       26     1                 OUTLINED_FUNCTION_3
c0de7a26 c0de7a26       20     2         build/flex/obj/sdk/lib_nbgl/src/nbgl_layout.o:(.text.OUTLINED_FUNCTION_4)
c0de7a26 c0de7a26        0     1                 $t.66
c0de7a27 c0de7a27       20     1                 OUTLINED_FUNCTION_4
c0de7a46 c0de7a46       1a     2         build/flex/obj/sdk/lib_nbgl/src/nbgl_layout.o:(.text.OUTLINED_FUNCTION_5)
c0de7a46 c0de7a46        0     1                 $t.67
c0de7a47 c0de7a47       1a     1                 OUTLINED_FUNCTION_5
c0de7a60 c0de7a60        8     2         build/flex/obj/sdk/lib_nbgl/src/nbgl_layout.o:(.text.OUTLINED_FUNCTION_6)
c0de7a60 c0de7a60        0     1                 $t.68
c0de7a61 c0de7a61        8     1                 OUTLINED_FUNCTION_6
c0de7a68 c0de7a68       34     2         build/flex/obj/sdk/lib_nbgl/src/nbgl_layout.o:(.text.OUTLINED_FUNCTION_7)
c0de7a68 c0de7a68        0     1                 $t.69
c0de7a69 c0de7a69       34     1                 OUTLINED_FUNCTION_7
c0de7a9c c0de7a9c       1c     2         build/flex/obj/sdk/lib_nbgl/src/nbgl_layout.o:(.text.OUTLINED_FUNCTION_8)
c0de7a9c c0de7a9c        0     1                 $t.70
c0de7a9d c0de7a9d       1c     1                 OUTLINED_FUNCTION_8
c0de7ab8 c0de7ab8       32     2         build/flex/obj/sdk/lib_nbgl/src/nbgl_layout.o:(.text.OUTLINED_FUNCTION_9)
c0de7ab8 c0de7ab8        0     1                 $t.71
c0de7ab9 c0de7ab9       32     1                 OUTLINED_FUNCTION_9
c0de7aea c0de7aea       1c     2         build/flex/obj/sdk/lib_nbgl/src/nbgl_layout.o:(.text.OUTLINED_FUNCTION_10)
c0de7aea c0de7aea        0     1                 $t.72
c0de7aeb c0de7aeb       1c     1                 OUTLINED_FUNCTION_10
c0de7b06 c0de7b06       14     2         build/flex/obj/sdk/lib_nbgl/src/nbgl_layout.o:(.text.OUTLINED_FUNCTION_11)
c0de7b06 c0de7b06        0     1                 $t.73
c0de7b07 c0de7b07       14     1                 OUTLINED_FUNCTION_11
c0de7b1a c0de7b1a       30     2         build/flex/obj/sdk/lib_nbgl/src/nbgl_layout.o:(.text.OUTLINED_FUNCTION_12)
c0de7b1a c0de7b1a        0     1                 $t.74
c0de7b1b c0de7b1b       30     1                 OUTLINED_FUNCTION_12
c0de7b4a c0de7b4a        e     2         build/flex/obj/sdk/lib_nbgl/src/nbgl_layout.o:(.text.OUTLINED_FUNCTION_13)
c0de7b4a c0de7b4a        0     1                 $t.75
c0de7b4b c0de7b4b        e     1                 OUTLINED_FUNCTION_13
c0de7b58 c0de7b58       10     2         build/flex/obj/sdk/lib_nbgl/src/nbgl_layout.o:(.text.OUTLINED_FUNCTION_14)
c0de7b58 c0de7b58        0     1                 $t.76
c0de7b59 c0de7b59       10     1                 OUTLINED_FUNCTION_14
c0de7b68 c0de7b68       2e     2         build/flex/obj/sdk/lib_nbgl/src/nbgl_layout.o:(.text.OUTLINED_FUNCTION_15)
c0de7b68 c0de7b68        0     1                 $t.77
c0de7b69 c0de7b69       2e     1                 OUTLINED_FUNCTION_15
c0de7b96 c0de7b96        8     2         build/flex/obj/sdk/lib_nbgl/src/nbgl_layout.o:(.text.OUTLINED_FUNCTION_16)
c0de7b96 c0de7b96        0     1                 $t.78
c0de7b97 c0de7b97        8     1                 OUTLINED_FUNCTION_16
c0de7b9e c0de7b9e        8     2         build/flex/obj/sdk/lib_nbgl/src/nbgl_layout.o:(.text.OUTLINED_FUNCTION_17)
c0de7b9e c0de7b9e        0     1                 $t.79
c0de7b9f c0de7b9f        8     1                 OUTLINED_FUNCTION_17
c0de7ba6 c0de7ba6       28     2         build/flex/obj/sdk/lib_nbgl/src/nbgl_layout.o:(.text.OUTLINED_FUNCTION_18)
c0de7ba6 c0de7ba6        0     1                 $t.80
c0de7ba7 c0de7ba7       28     1                 OUTLINED_FUNCTION_18
c0de7bce c0de7bce       28     2         build/flex/obj/sdk/lib_nbgl/src/nbgl_layout.o:(.text.OUTLINED_FUNCTION_19)
c0de7bce c0de7bce        0     1                 $t.81
c0de7bcf c0de7bcf       28     1                 OUTLINED_FUNCTION_19
c0de7bf6 c0de7bf6        6     2         build/flex/obj/sdk/lib_nbgl/src/nbgl_layout.o:(.text.OUTLINED_FUNCTION_20)
c0de7bf6 c0de7bf6        0     1                 $t.82
c0de7bf7 c0de7bf7        6     1                 OUTLINED_FUNCTION_20
c0de7bfc c0de7bfc        8     2         build/flex/obj/sdk/lib_nbgl/src/nbgl_layout.o:(.text.OUTLINED_FUNCTION_21)
c0de7bfc c0de7bfc        0     1                 $t.83
c0de7bfd c0de7bfd        8     1                 OUTLINED_FUNCTION_21
c0de7c04 c0de7c04       24     2         build/flex/obj/sdk/lib_nbgl/src/nbgl_layout.o:(.text.OUTLINED_FUNCTION_22)
c0de7c04 c0de7c04        0     1                 $t.84
c0de7c05 c0de7c05       24     1                 OUTLINED_FUNCTION_22
c0de7c28 c0de7c28        6     2         build/flex/obj/sdk/lib_nbgl/src/nbgl_layout.o:(.text.OUTLINED_FUNCTION_23)
c0de7c28 c0de7c28        0     1                 $t.85
c0de7c29 c0de7c29        6     1                 OUTLINED_FUNCTION_23
c0de7c2e c0de7c2e       20     2         build/flex/obj/sdk/lib_nbgl/src/nbgl_layout.o:(.text.OUTLINED_FUNCTION_24)
c0de7c2e c0de7c2e        0     1                 $t.86
c0de7c2f c0de7c2f       20     1                 OUTLINED_FUNCTION_24
c0de7c4e c0de7c4e        a     2         build/flex/obj/sdk/lib_nbgl/src/nbgl_layout.o:(.text.OUTLINED_FUNCTION_25)
c0de7c4e c0de7c4e        0     1                 $t.87
c0de7c4f c0de7c4f        a     1                 OUTLINED_FUNCTION_25
c0de7c58 c0de7c58       20     2         build/flex/obj/sdk/lib_nbgl/src/nbgl_layout.o:(.text.OUTLINED_FUNCTION_26)
c0de7c58 c0de7c58        0     1                 $t.88
c0de7c59 c0de7c59       20     1                 OUTLINED_FUNCTION_26
c0de7c78 c0de7c78       20     2         build/flex/obj/sdk/lib_nbgl/src/nbgl_layout.o:(.text.OUTLINED_FUNCTION_27)
c0de7c78 c0de7c78        0     1                 $t.89
c0de7c79 c0de7c79       20     1                 OUTLINED_FUNCTION_27
c0de7c98 c0de7c98       12     2         build/flex/obj/sdk/lib_nbgl/src/nbgl_layout.o:(.text.OUTLINED_FUNCTION_28)
c0de7c98 c0de7c98        0     1                 $t.90
c0de7c99 c0de7c99       12     1                 OUTLINED_FUNCTION_28
c0de7caa c0de7caa       12     2         build/flex/obj/sdk/lib_nbgl/src/nbgl_layout.o:(.text.OUTLINED_FUNCTION_29)
c0de7caa c0de7caa        0     1                 $t.91
c0de7cab c0de7cab       12     1                 OUTLINED_FUNCTION_29
c0de7cbc c0de7cbc       1e     2         build/flex/obj/sdk/lib_nbgl/src/nbgl_layout.o:(.text.OUTLINED_FUNCTION_30)
c0de7cbc c0de7cbc        0     1                 $t.92
c0de7cbd c0de7cbd       1e     1                 OUTLINED_FUNCTION_30
c0de7cda c0de7cda       12     2         build/flex/obj/sdk/lib_nbgl/src/nbgl_layout.o:(.text.OUTLINED_FUNCTION_31)
c0de7cda c0de7cda        0     1                 $t.93
c0de7cdb c0de7cdb       12     1                 OUTLINED_FUNCTION_31
c0de7cec c0de7cec       1c     2         build/flex/obj/sdk/lib_nbgl/src/nbgl_layout.o:(.text.OUTLINED_FUNCTION_32)
c0de7cec c0de7cec        0     1                 $t.94
c0de7ced c0de7ced       1c     1                 OUTLINED_FUNCTION_32
c0de7d08 c0de7d08       1c     2         build/flex/obj/sdk/lib_nbgl/src/nbgl_layout.o:(.text.OUTLINED_FUNCTION_33)
c0de7d08 c0de7d08        0     1                 $t.95
c0de7d09 c0de7d09       1c     1                 OUTLINED_FUNCTION_33
c0de7d24 c0de7d24       18     2         build/flex/obj/sdk/lib_nbgl/src/nbgl_layout.o:(.text.OUTLINED_FUNCTION_34)
c0de7d24 c0de7d24        0     1                 $t.96
c0de7d25 c0de7d25       18     1                 OUTLINED_FUNCTION_34
c0de7d3c c0de7d3c        6     2         build/flex/obj/sdk/lib_nbgl/src/nbgl_layout.o:(.text.OUTLINED_FUNCTION_35)
c0de7d3c c0de7d3c        0     1                 $t.97
c0de7d3d c0de7d3d        6     1                 OUTLINED_FUNCTION_35
c0de7d42 c0de7d42       1c     2         build/flex/obj/sdk/lib_nbgl/src/nbgl_layout.o:(.text.OUTLINED_FUNCTION_36)
c0de7d42 c0de7d42        0     1                 $t.98
c0de7d43 c0de7d43       1c     1                 OUTLINED_FUNCTION_36
c0de7d5e c0de7d5e       1c     2         build/flex/obj/sdk/lib_nbgl/src/nbgl_layout.o:(.text.OUTLINED_FUNCTION_37)
c0de7d5e c0de7d5e        0     1                 $t.99
c0de7d5f c0de7d5f       1c     1                 OUTLINED_FUNCTION_37
c0de7d7a c0de7d7a       1c     2         build/flex/obj/sdk/lib_nbgl/src/nbgl_layout.o:(.text.OUTLINED_FUNCTION_38)
c0de7d7a c0de7d7a        0     1                 $t.100
c0de7d7b c0de7d7b       1c     1                 OUTLINED_FUNCTION_38
c0de7d96 c0de7d96       16     2         build/flex/obj/sdk/lib_nbgl/src/nbgl_layout.o:(.text.OUTLINED_FUNCTION_39)
c0de7d96 c0de7d96        0     1                 $t.101
c0de7d97 c0de7d97       16     1                 OUTLINED_FUNCTION_39
c0de7dac c0de7dac       1a     2         build/flex/obj/sdk/lib_nbgl/src/nbgl_layout.o:(.text.OUTLINED_FUNCTION_40)
c0de7dac c0de7dac        0     1                 $t.102
c0de7dad c0de7dad       1a     1                 OUTLINED_FUNCTION_40
c0de7dc6 c0de7dc6       10     2         build/flex/obj/sdk/lib_nbgl/src/nbgl_layout.o:(.text.OUTLINED_FUNCTION_41)
c0de7dc6 c0de7dc6        0     1                 $t.103
c0de7dc7 c0de7dc7       10     1                 OUTLINED_FUNCTION_41
c0de7dd6 c0de7dd6       10     2         build/flex/obj/sdk/lib_nbgl/src/nbgl_layout.o:(.text.OUTLINED_FUNCTION_42)
c0de7dd6 c0de7dd6        0     1                 $t.104
c0de7dd7 c0de7dd7       10     1                 OUTLINED_FUNCTION_42
c0de7de6 c0de7de6        6     2         build/flex/obj/sdk/lib_nbgl/src/nbgl_layout.o:(.text.OUTLINED_FUNCTION_43)
c0de7de6 c0de7de6        0     1                 $t.105
c0de7de7 c0de7de7        6     1                 OUTLINED_FUNCTION_43
c0de7dec c0de7dec       18     2         build/flex/obj/sdk/lib_nbgl/src/nbgl_layout.o:(.text.OUTLINED_FUNCTION_44)
c0de7dec c0de7dec        0     1                 $t.106
c0de7ded c0de7ded       18     1                 OUTLINED_FUNCTION_44
c0de7e04 c0de7e04        e     2         build/flex/obj/sdk/lib_nbgl/src/nbgl_layout.o:(.text.OUTLINED_FUNCTION_45)
c0de7e04 c0de7e04        0     1                 $t.107
c0de7e05 c0de7e05        e     1                 OUTLINED_FUNCTION_45
c0de7e12 c0de7e12        e     2         build/flex/obj/sdk/lib_nbgl/src/nbgl_layout.o:(.text.OUTLINED_FUNCTION_46)
c0de7e12 c0de7e12        0     1                 $t.108
c0de7e13 c0de7e13        e     1                 OUTLINED_FUNCTION_46
c0de7e20 c0de7e20        a     2         build/flex/obj/sdk/lib_nbgl/src/nbgl_layout.o:(.text.OUTLINED_FUNCTION_47)
c0de7e20 c0de7e20        0     1                 $t.109
c0de7e21 c0de7e21        a     1                 OUTLINED_FUNCTION_47
c0de7e2a c0de7e2a        e     2         build/flex/obj/sdk/lib_nbgl/src/nbgl_layout.o:(.text.OUTLINED_FUNCTION_48)
c0de7e2a c0de7e2a        0     1                 $t.110
c0de7e2b c0de7e2b        e     1                 OUTLINED_FUNCTION_48
c0de7e38 c0de7e38        6     2         build/flex/obj/sdk/lib_nbgl/src/nbgl_layout.o:(.text.OUTLINED_FUNCTION_49)
c0de7e38 c0de7e38        0     1                 $t.111
c0de7e39 c0de7e39        6     1                 OUTLINED_FUNCTION_49
c0de7e3e c0de7e3e       14     2         build/flex/obj/sdk/lib_nbgl/src/nbgl_layout.o:(.text.OUTLINED_FUNCTION_50)
c0de7e3e c0de7e3e        0     1                 $t.112
c0de7e3f c0de7e3f       14     1                 OUTLINED_FUNCTION_50
c0de7e52 c0de7e52        8     2         build/flex/obj/sdk/lib_nbgl/src/nbgl_layout.o:(.text.OUTLINED_FUNCTION_51)
c0de7e52 c0de7e52        0     1                 $t.113
c0de7e53 c0de7e53        8     1                 OUTLINED_FUNCTION_51
c0de7e5a c0de7e5a       14     2         build/flex/obj/sdk/lib_nbgl/src/nbgl_layout.o:(.text.OUTLINED_FUNCTION_52)
c0de7e5a c0de7e5a        0     1                 $t.114
c0de7e5b c0de7e5b       14     1                 OUTLINED_FUNCTION_52
c0de7e6e c0de7e6e       14     2         build/flex/obj/sdk/lib_nbgl/src/nbgl_layout.o:(.text.OUTLINED_FUNCTION_53)
c0de7e6e c0de7e6e        0     1                 $t.115
c0de7e6f c0de7e6f       14     1                 OUTLINED_FUNCTION_53
c0de7e82 c0de7e82       10     2         build/flex/obj/sdk/lib_nbgl/src/nbgl_layout.o:(.text.OUTLINED_FUNCTION_54)
c0de7e82 c0de7e82        0     1                 $t.116
c0de7e83 c0de7e83       10     1                 OUTLINED_FUNCTION_54
c0de7e92 c0de7e92        a     2         build/flex/obj/sdk/lib_nbgl/src/nbgl_layout.o:(.text.OUTLINED_FUNCTION_55)
c0de7e92 c0de7e92        0     1                 $t.117
c0de7e93 c0de7e93        a     1                 OUTLINED_FUNCTION_55
c0de7e9c c0de7e9c       12     2         build/flex/obj/sdk/lib_nbgl/src/nbgl_layout.o:(.text.OUTLINED_FUNCTION_56)
c0de7e9c c0de7e9c        0     1                 $t.118
c0de7e9d c0de7e9d       12     1                 OUTLINED_FUNCTION_56
c0de7eae c0de7eae       12     2         build/flex/obj/sdk/lib_nbgl/src/nbgl_layout.o:(.text.OUTLINED_FUNCTION_57)
c0de7eae c0de7eae        0     1                 $t.119
c0de7eaf c0de7eaf       12     1                 OUTLINED_FUNCTION_57
c0de7ec0 c0de7ec0        a     2         build/flex/obj/sdk/lib_nbgl/src/nbgl_layout.o:(.text.OUTLINED_FUNCTION_58)
c0de7ec0 c0de7ec0        0     1                 $t.120
c0de7ec1 c0de7ec1        a     1                 OUTLINED_FUNCTION_58
c0de7eca c0de7eca        c     2         build/flex/obj/sdk/lib_nbgl/src/nbgl_layout.o:(.text.OUTLINED_FUNCTION_59)
c0de7eca c0de7eca        0     1                 $t.121
c0de7ecb c0de7ecb        c     1                 OUTLINED_FUNCTION_59
c0de7ed6 c0de7ed6        a     2         build/flex/obj/sdk/lib_nbgl/src/nbgl_layout.o:(.text.OUTLINED_FUNCTION_60)
c0de7ed6 c0de7ed6        0     1                 $t.122
c0de7ed7 c0de7ed7        a     1                 OUTLINED_FUNCTION_60
c0de7ee0 c0de7ee0        c     2         build/flex/obj/sdk/lib_nbgl/src/nbgl_layout.o:(.text.OUTLINED_FUNCTION_61)
c0de7ee0 c0de7ee0        0     1                 $t.123
c0de7ee1 c0de7ee1        c     1                 OUTLINED_FUNCTION_61
c0de7eec c0de7eec        8     2         build/flex/obj/sdk/lib_nbgl/src/nbgl_layout.o:(.text.OUTLINED_FUNCTION_62)
c0de7eec c0de7eec        0     1                 $t.124
c0de7eed c0de7eed        8     1                 OUTLINED_FUNCTION_62
c0de7ef4 c0de7ef4        8     2         build/flex/obj/sdk/lib_nbgl/src/nbgl_layout.o:(.text.OUTLINED_FUNCTION_63)
c0de7ef4 c0de7ef4        0     1                 $t.125
c0de7ef5 c0de7ef5        8     1                 OUTLINED_FUNCTION_63
c0de7efc c0de7efc        c     2         build/flex/obj/sdk/lib_nbgl/src/nbgl_layout.o:(.text.OUTLINED_FUNCTION_64)
c0de7efc c0de7efc        0     1                 $t.126
c0de7efd c0de7efd        c     1                 OUTLINED_FUNCTION_64
c0de7f08 c0de7f08       10     2         build/flex/obj/sdk/lib_nbgl/src/nbgl_layout.o:(.text.OUTLINED_FUNCTION_65)
c0de7f08 c0de7f08        0     1                 $t.127
c0de7f09 c0de7f09       10     1                 OUTLINED_FUNCTION_65
c0de7f18 c0de7f18       10     2         build/flex/obj/sdk/lib_nbgl/src/nbgl_layout.o:(.text.OUTLINED_FUNCTION_66)
c0de7f18 c0de7f18        0     1                 $t.128
c0de7f19 c0de7f19       10     1                 OUTLINED_FUNCTION_66
c0de7f28 c0de7f28        a     2         build/flex/obj/sdk/lib_nbgl/src/nbgl_layout.o:(.text.OUTLINED_FUNCTION_67)
c0de7f28 c0de7f28        0     1                 $t.129
c0de7f29 c0de7f29        a     1                 OUTLINED_FUNCTION_67
c0de7f32 c0de7f32        6     2         build/flex/obj/sdk/lib_nbgl/src/nbgl_layout.o:(.text.OUTLINED_FUNCTION_68)
c0de7f32 c0de7f32        0     1                 $t.130
c0de7f33 c0de7f33        6     1                 OUTLINED_FUNCTION_68
c0de7f38 c0de7f38        c     2         build/flex/obj/sdk/lib_nbgl/src/nbgl_layout.o:(.text.OUTLINED_FUNCTION_69)
c0de7f38 c0de7f38        0     1                 $t.131
c0de7f39 c0de7f39        c     1                 OUTLINED_FUNCTION_69
c0de7f44 c0de7f44        e     2         build/flex/obj/sdk/lib_nbgl/src/nbgl_layout.o:(.text.OUTLINED_FUNCTION_70)
c0de7f44 c0de7f44        0     1                 $t.132
c0de7f45 c0de7f45        e     1                 OUTLINED_FUNCTION_70
c0de7f52 c0de7f52        e     2         build/flex/obj/sdk/lib_nbgl/src/nbgl_layout.o:(.text.OUTLINED_FUNCTION_71)
c0de7f52 c0de7f52        0     1                 $t.133
c0de7f53 c0de7f53        e     1                 OUTLINED_FUNCTION_71
c0de7f60 c0de7f60        e     2         build/flex/obj/sdk/lib_nbgl/src/nbgl_layout.o:(.text.OUTLINED_FUNCTION_72)
c0de7f60 c0de7f60        0     1                 $t.134
c0de7f61 c0de7f61        e     1                 OUTLINED_FUNCTION_72
c0de7f6e c0de7f6e        e     2         build/flex/obj/sdk/lib_nbgl/src/nbgl_layout.o:(.text.OUTLINED_FUNCTION_73)
c0de7f6e c0de7f6e        0     1                 $t.135
c0de7f6f c0de7f6f        e     1                 OUTLINED_FUNCTION_73
c0de7f7c c0de7f7c        6     2         build/flex/obj/sdk/lib_nbgl/src/nbgl_layout.o:(.text.OUTLINED_FUNCTION_74)
c0de7f7c c0de7f7c        0     1                 $t.136
c0de7f7d c0de7f7d        6     1                 OUTLINED_FUNCTION_74
c0de7f82 c0de7f82        e     2         build/flex/obj/sdk/lib_nbgl/src/nbgl_layout.o:(.text.OUTLINED_FUNCTION_75)
c0de7f82 c0de7f82        0     1                 $t.137
c0de7f83 c0de7f83        e     1                 OUTLINED_FUNCTION_75
c0de7f90 c0de7f90        e     2         build/flex/obj/sdk/lib_nbgl/src/nbgl_layout.o:(.text.OUTLINED_FUNCTION_76)
c0de7f90 c0de7f90        0     1                 $t.138
c0de7f91 c0de7f91        e     1                 OUTLINED_FUNCTION_76
c0de7f9e c0de7f9e        6     2         build/flex/obj/sdk/lib_nbgl/src/nbgl_layout.o:(.text.OUTLINED_FUNCTION_78)
c0de7f9e c0de7f9e        0     1                 $t.140
c0de7f9f c0de7f9f        6     1                 OUTLINED_FUNCTION_78
c0de7fa4 c0de7fa4        8     2         build/flex/obj/sdk/lib_nbgl/src/nbgl_layout.o:(.text.OUTLINED_FUNCTION_79)
c0de7fa4 c0de7fa4        0     1                 $t.141
c0de7fa5 c0de7fa5        8     1                 OUTLINED_FUNCTION_79
c0de7fac c0de7fac        a     2         build/flex/obj/sdk/lib_nbgl/src/nbgl_layout.o:(.text.OUTLINED_FUNCTION_80)
c0de7fac c0de7fac        0     1                 $t.142
c0de7fad c0de7fad        a     1                 OUTLINED_FUNCTION_80
c0de7fb6 c0de7fb6        e     2         build/flex/obj/sdk/lib_nbgl/src/nbgl_layout.o:(.text.OUTLINED_FUNCTION_81)
c0de7fb6 c0de7fb6        0     1                 $t.143
c0de7fb7 c0de7fb7        e     1                 OUTLINED_FUNCTION_81
c0de7fc4 c0de7fc4       a8     2         build/flex/obj/sdk/lib_nbgl/src/nbgl_layout_navigation.o:(.text.layoutNavigationCallback)
c0de7fc4 c0de7fc4        0     1                 $t.0
c0de7fc5 c0de7fc5       a8     1                 layoutNavigationCallback
c0de806c c0de806c       40     2         build/flex/obj/sdk/lib_nbgl/src/nbgl_layout_navigation.o:(.text.configButtons)
c0de806c c0de806c        0     1                 $t.1
c0de806d c0de806d       40     1                 configButtons
c0de80ac c0de80ac      204     4         build/flex/obj/sdk/lib_nbgl/src/nbgl_layout_navigation.o:(.text.layoutNavigationPopulate)
c0de80ac c0de80ac        0     1                 $t.2
c0de80ad c0de80ad      204     1                 layoutNavigationPopulate
c0de829c c0de829c        0     1                 $d.3
c0de82b0 c0de82b0       1a     2         build/flex/obj/sdk/lib_nbgl/src/nbgl_layout_navigation.o:(.text.OUTLINED_FUNCTION_0)
c0de82b0 c0de82b0        0     1                 $t.4
c0de82b1 c0de82b1       1a     1                 OUTLINED_FUNCTION_0
c0de82ca c0de82ca       12     2         build/flex/obj/sdk/lib_nbgl/src/nbgl_layout_navigation.o:(.text.OUTLINED_FUNCTION_1)
c0de82ca c0de82ca        0     1                 $t.5
c0de82cb c0de82cb       12     1                 OUTLINED_FUNCTION_1
c0de82dc c0de82dc       94     4         build/flex/obj/sdk/lib_nbgl/src/nbgl_page.o:(.text.nbgl_pageDrawLedgerInfo)
c0de82dc c0de82dc        0     1                 $t.0
c0de82dd c0de82dd       94     1                 nbgl_pageDrawLedgerInfo
c0de8368 c0de8368        0     1                 $d.1
c0de8370 c0de8370       14     2         build/flex/obj/sdk/lib_nbgl/src/nbgl_page.o:(.text.addEmptyHeader)
c0de8370 c0de8370        0     1                 $t.2
c0de8371 c0de8371       14     1                 addEmptyHeader
c0de8384 c0de8384      1e0     4         build/flex/obj/sdk/lib_nbgl/src/nbgl_page.o:(.text.nbgl_pageDrawInfo)
c0de8384 c0de8384        0     1                 $t.4
c0de8385 c0de8385      1e0     1                 nbgl_pageDrawInfo
c0de8544 c0de8544        0     1                 $d.5
c0de8564 c0de8564       74     4         build/flex/obj/sdk/lib_nbgl/src/nbgl_page.o:(.text.nbgl_pageDrawConfirmation)
c0de8564 c0de8564        0     1                 $t.6
c0de8565 c0de8565       74     1                 nbgl_pageDrawConfirmation
c0de85d4 c0de85d4        0     1                 $d.7
c0de85d8 c0de85d8      44c     4         build/flex/obj/sdk/lib_nbgl/src/nbgl_page.o:(.text.nbgl_pageDrawGenericContentExt)
c0de85d8 c0de85d8        0     1                 $t.8
c0de85d9 c0de85d9      44c     1                 nbgl_pageDrawGenericContentExt
c0de8a20 c0de8a20        0     1                 $d.9
c0de8a24 c0de8a24        6     2         build/flex/obj/sdk/lib_nbgl/src/nbgl_page.o:(.text.nbgl_pageDrawGenericContent)
c0de8a24 c0de8a24        0     1                 $t.10
c0de8a25 c0de8a25        6     1                 nbgl_pageDrawGenericContent
c0de8a2a c0de8a2a        4     2         build/flex/obj/sdk/lib_nbgl/src/nbgl_page.o:(.text.nbgl_pageRelease)
c0de8a2a c0de8a2a        0     1                 $t.11
c0de8a2b c0de8a2b        4     1                 nbgl_pageRelease
c0de8a2e c0de8a2e        8     2         build/flex/obj/sdk/lib_nbgl/src/nbgl_page.o:(.text.OUTLINED_FUNCTION_0)
c0de8a2e c0de8a2e        0     1                 $t.12
c0de8a2f c0de8a2f        8     1                 OUTLINED_FUNCTION_0
c0de8a36 c0de8a36       12     2         build/flex/obj/sdk/lib_nbgl/src/nbgl_page.o:(.text.OUTLINED_FUNCTION_1)
c0de8a36 c0de8a36        0     1                 $t.13
c0de8a37 c0de8a37       12     1                 OUTLINED_FUNCTION_1
c0de8a48 c0de8a48        c     2         build/flex/obj/sdk/lib_nbgl/src/nbgl_page.o:(.text.OUTLINED_FUNCTION_2)
c0de8a48 c0de8a48        0     1                 $t.14
c0de8a49 c0de8a49        c     1                 OUTLINED_FUNCTION_2
c0de8a54 c0de8a54        e     2         build/flex/obj/sdk/lib_nbgl/src/nbgl_page.o:(.text.OUTLINED_FUNCTION_3)
c0de8a54 c0de8a54        0     1                 $t.15
c0de8a55 c0de8a55        e     1                 OUTLINED_FUNCTION_3
c0de8a62 c0de8a62        e     2         build/flex/obj/sdk/lib_nbgl/src/nbgl_page.o:(.text.OUTLINED_FUNCTION_4)
c0de8a62 c0de8a62        0     1                 $t.16
c0de8a63 c0de8a63        e     1                 OUTLINED_FUNCTION_4
c0de8a70 c0de8a70        a     2         build/flex/obj/sdk/lib_nbgl/src/nbgl_page.o:(.text.OUTLINED_FUNCTION_5)
c0de8a70 c0de8a70        0     1                 $t.17
c0de8a71 c0de8a71        a     1                 OUTLINED_FUNCTION_5
c0de8a7a c0de8a7a      136     2         build/flex/obj/sdk/lib_nbgl/src/nbgl_use_case.o:(.text.getNbTagValuesInPage)
c0de8a7a c0de8a7a        0     1                 $t.1
c0de8a7b c0de8a7b      136     1                 getNbTagValuesInPage
c0de8bb0 c0de8bb0       92     2         build/flex/obj/sdk/lib_nbgl/src/nbgl_use_case.o:(.text.nbgl_useCaseGetNbInfosInPage)
c0de8bb0 c0de8bb0        0     1                 $t.3
c0de8bb1 c0de8bb1       92     1                 nbgl_useCaseGetNbInfosInPage
c0de8c42 c0de8c42       6c     2         build/flex/obj/sdk/lib_nbgl/src/nbgl_use_case.o:(.text.nbgl_useCaseGetNbSwitchesInPage)
c0de8c42 c0de8c42        0     1                 $t.4
c0de8c43 c0de8c43       6c     1                 nbgl_useCaseGetNbSwitchesInPage
c0de8cae c0de8cae       40     2         build/flex/obj/sdk/lib_nbgl/src/nbgl_use_case.o:(.text.nbgl_useCaseGetNbBarsInPage)
c0de8cae c0de8cae        0     1                 $t.5
c0de8caf c0de8caf       40     1                 nbgl_useCaseGetNbBarsInPage
c0de8cee c0de8cee       3c     2         build/flex/obj/sdk/lib_nbgl/src/nbgl_use_case.o:(.text.nbgl_useCaseGetNbChoicesInPage)
c0de8cee c0de8cee        0     1                 $t.6
c0de8cef c0de8cef       3c     1                 nbgl_useCaseGetNbChoicesInPage
c0de8d2c c0de8d2c      134     4         build/flex/obj/sdk/lib_nbgl/src/nbgl_use_case.o:(.text.useCaseHomeExt)
c0de8d2c c0de8d2c        0     1                 $t.9
c0de8d2d c0de8d2d      134     1                 useCaseHomeExt
c0de8e3c c0de8e3c        0     1                 $d.10
c0de8e60 c0de8e60       2c     4         build/flex/obj/sdk/lib_nbgl/src/nbgl_use_case.o:(.text.reset_callbacks_and_context)
c0de8e60 c0de8e60        0     1                 $t.14
c0de8e61 c0de8e61       2c     1                 reset_callbacks_and_context
c0de8e84 c0de8e84        0     1                 $d.15
c0de8e8c c0de8e8c       78     4         build/flex/obj/sdk/lib_nbgl/src/nbgl_use_case.o:(.text.prepareNavInfo)
c0de8e8c c0de8e8c        0     1                 $t.16
c0de8e8d c0de8e8d       78     1                 prepareNavInfo
c0de8f00 c0de8f00        0     1                 $d.17
c0de8f04 c0de8f04       64     4         build/flex/obj/sdk/lib_nbgl/src/nbgl_use_case.o:(.text.displaySettingsPage)
c0de8f04 c0de8f04        0     1                 $t.18
c0de8f05 c0de8f05       64     1                 displaySettingsPage
c0de8f60 c0de8f60        0     1                 $d.19
c0de8f68 c0de8f68       b4     4         build/flex/obj/sdk/lib_nbgl/src/nbgl_use_case.o:(.text.nbgl_useCaseGenericSettings)
c0de8f68 c0de8f68        0     1                 $t.21
c0de8f69 c0de8f69       b4     1                 nbgl_useCaseGenericSettings
c0de9010 c0de9010        0     1                 $d.22
c0de901c c0de901c       50     4         build/flex/obj/sdk/lib_nbgl/src/nbgl_use_case.o:(.text.getNbPagesForGenericContents)
c0de901c c0de901c        0     1                 $t.23
c0de901d c0de901d       50     1                 getNbPagesForGenericContents
c0de9068 c0de9068        0     1                 $d.24
c0de906c c0de906c      124     4         build/flex/obj/sdk/lib_nbgl/src/nbgl_use_case.o:(.text.getNbPagesForContent)
c0de906c c0de906c        0     1                 $t.25
c0de906d c0de906d      124     1                 getNbPagesForContent
c0de9188 c0de9188        0     1                 $d.26
c0de9190 c0de9190      40c     4         build/flex/obj/sdk/lib_nbgl/src/nbgl_use_case.o:(.text.displayGenericContextPage)
c0de9190 c0de9190        0     1                 $t.27
c0de9191 c0de9191      40c     1                 displayGenericContextPage
c0de9578 c0de9578        0     1                 $d.28
c0de959c c0de959c       6c     4         build/flex/obj/sdk/lib_nbgl/src/nbgl_use_case.o:(.text.nbgl_useCaseHomeAndSettings)
c0de959c c0de959c        0     1                 $t.30
c0de959d c0de959d       6c     1                 nbgl_useCaseHomeAndSettings
c0de9604 c0de9604        0     1                 $d.31
c0de9608 c0de9608       24     4         build/flex/obj/sdk/lib_nbgl/src/nbgl_use_case.o:(.text.bundleNavStartSettingsAtPage)
c0de9608 c0de9608        0     1                 $t.32
c0de9609 c0de9609       24     1                 bundleNavStartSettingsAtPage
c0de9624 c0de9624        0     1                 $d.33
c0de962c c0de962c       30     4         build/flex/obj/sdk/lib_nbgl/src/nbgl_use_case.o:(.text.bundleNavStartHome)
c0de962c c0de962c        0     1                 $t.34
c0de962d c0de962d       30     1                 bundleNavStartHome
c0de9654 c0de9654        0     1                 $d.35
c0de965c c0de965c       a8     4         build/flex/obj/sdk/lib_nbgl/src/nbgl_use_case.o:(.text.nbgl_useCaseStatus)
c0de965c c0de965c        0     1                 $t.36
c0de965d c0de965d       a8     1                 nbgl_useCaseStatus
c0de96ec c0de96ec        0     1                 $d.37
c0de9704 c0de9704       20     4         build/flex/obj/sdk/lib_nbgl/src/nbgl_use_case.o:(.text.tickerCallback)
c0de9704 c0de9704        0     1                 $t.38
c0de9705 c0de9705       20     1                 tickerCallback
c0de9720 c0de9720        0     1                 $d.39
c0de9724 c0de9724      3a8     4         build/flex/obj/sdk/lib_nbgl/src/nbgl_use_case.o:(.text.pageCallback)
c0de9724 c0de9724        0     1                 $t.40
c0de9725 c0de9725      3a8     1                 pageCallback
c0de9aa4 c0de9aa4        0     1                 $d.41
c0de9acc c0de9acc       94     4         build/flex/obj/sdk/lib_nbgl/src/nbgl_use_case.o:(.text.nbgl_useCaseReviewStatus)
c0de9acc c0de9acc        0     1                 $t.42
c0de9acd c0de9acd       94     1                 nbgl_useCaseReviewStatus
c0de9b40 c0de9b40        0     1                 $d.43
c0de9b60 c0de9b60       74     4         build/flex/obj/sdk/lib_nbgl/src/nbgl_use_case.o:(.text.nbgl_useCaseChoice)
c0de9b60 c0de9b60        0     1                 $t.44
c0de9b61 c0de9b61       74     1                 nbgl_useCaseChoice
c0de9bcc c0de9bcc        0     1                 $d.45
c0de9bd4 c0de9bd4       54     4         build/flex/obj/sdk/lib_nbgl/src/nbgl_use_case.o:(.text.nbgl_useCaseConfirm)
c0de9bd4 c0de9bd4        0     1                 $t.46
c0de9bd5 c0de9bd5       54     1                 nbgl_useCaseConfirm
c0de9c18 c0de9c18        0     1                 $d.47
c0de9c28 c0de9c28       e4     4         build/flex/obj/sdk/lib_nbgl/src/nbgl_use_case.o:(.text.pageModalCallback)
c0de9c28 c0de9c28        0     1                 $t.48
c0de9c29 c0de9c29       e4     1                 pageModalCallback
c0de9d00 c0de9d00        0     1                 $d.49
c0de9d0c c0de9d0c       ac     4         build/flex/obj/sdk/lib_nbgl/src/nbgl_use_case.o:(.text.displayReviewPage)
c0de9d0c c0de9d0c        0     1                 $t.56
c0de9d0d c0de9d0d       ac     1                 displayReviewPage
c0de9db0 c0de9db0        0     1                 $d.57
c0de9db8 c0de9db8       28     2         build/flex/obj/sdk/lib_nbgl/src/nbgl_use_case.o:(.text.nbgl_useCaseReview)
c0de9db8 c0de9db8        0     1                 $t.62
c0de9db9 c0de9db9       28     1                 nbgl_useCaseReview
c0de9de0 c0de9de0      134     4         build/flex/obj/sdk/lib_nbgl/src/nbgl_use_case.o:(.text.useCaseReview)
c0de9de0 c0de9de0        0     1                 $t.63
c0de9de1 c0de9de1      134     1                 useCaseReview
c0de9ee8 c0de9ee8        0     1                 $d.64
c0de9f14 c0de9f14       28     4         build/flex/obj/sdk/lib_nbgl/src/nbgl_use_case.o:(.text.nbgl_useCaseReviewBlindSigning)
c0de9f14 c0de9f14        0     1                 $t.65
c0de9f15 c0de9f15       28     1                 nbgl_useCaseReviewBlindSigning
c0de9f38 c0de9f38        0     1                 $d.66
c0de9f3c c0de9f3c       cc     4         build/flex/obj/sdk/lib_nbgl/src/nbgl_use_case.o:(.text.nbgl_useCaseAdvancedReview)
c0de9f3c c0de9f3c        0     1                 $t.67
c0de9f3d c0de9f3d       cc     1                 nbgl_useCaseAdvancedReview
c0dea000 c0dea000        0     1                 $d.68
c0dea008 c0dea008      1a8     4         build/flex/obj/sdk/lib_nbgl/src/nbgl_use_case.o:(.text.displayInitialWarning)
c0dea008 c0dea008        0     1                 $t.69
c0dea009 c0dea009      1a8     1                 displayInitialWarning
c0dea164 c0dea164        0     1                 $d.70
c0dea1b0 c0dea1b0       bc     4         build/flex/obj/sdk/lib_nbgl/src/nbgl_use_case.o:(.text.useCaseReviewStreamingStart)
c0dea1b0 c0dea1b0        0     1                 $t.75
c0dea1b1 c0dea1b1       bc     1                 useCaseReviewStreamingStart
c0dea250 c0dea250        0     1                 $d.76
c0dea26c c0dea26c       48     4         build/flex/obj/sdk/lib_nbgl/src/nbgl_use_case.o:(.text.bundleNavReviewStreamingChoice)
c0dea26c c0dea26c        0     1                 $t.83
c0dea26d c0dea26d       48     1                 bundleNavReviewStreamingChoice
c0dea2a4 c0dea2a4        0     1                 $d.84
c0dea2b4 c0dea2b4       40     4         build/flex/obj/sdk/lib_nbgl/src/nbgl_use_case.o:(.text.prepareReviewLastPage)
c0dea2b4 c0dea2b4        0     1                 $t.88
c0dea2b5 c0dea2b5       40     1                 prepareReviewLastPage
c0dea2e4 c0dea2e4        0     1                 $d.89
c0dea2f4 c0dea2f4      160     4         build/flex/obj/sdk/lib_nbgl/src/nbgl_use_case.o:(.text.prepareAddressConfirmationPages)
c0dea2f4 c0dea2f4        0     1                 $t.92
c0dea2f5 c0dea2f5      160     1                 prepareAddressConfirmationPages
c0dea43c c0dea43c        0     1                 $d.93
c0dea454 c0dea454       d8     4         build/flex/obj/sdk/lib_nbgl/src/nbgl_use_case.o:(.text.nbgl_useCaseAddressReview)
c0dea454 c0dea454        0     1                 $t.94
c0dea455 c0dea455       d8     1                 nbgl_useCaseAddressReview
c0dea510 c0dea510        0     1                 $d.95
c0dea52c c0dea52c       88     4         build/flex/obj/sdk/lib_nbgl/src/nbgl_use_case.o:(.text.nbgl_useCaseSpinner)
c0dea52c c0dea52c        0     1                 $t.96
c0dea52d c0dea52d       88     1                 nbgl_useCaseSpinner
c0dea5b0 c0dea5b0        0     1                 $d.97
c0dea5b4 c0dea5b4       54     4         build/flex/obj/sdk/lib_nbgl/src/nbgl_use_case.o:(.text.getContentAtIdx)
c0dea5b4 c0dea5b4        0     1                 $t.98
c0dea5b5 c0dea5b5       54     1                 getContentAtIdx
c0dea604 c0dea604        0     1                 $d.99
c0dea608 c0dea608       2e     2         build/flex/obj/sdk/lib_nbgl/src/nbgl_use_case.o:(.text.getContentNbElement)
c0dea608 c0dea608        0     1                 $t.100
c0dea609 c0dea609       2e     1                 getContentNbElement
c0dea638 c0dea638      124     4         build/flex/obj/sdk/lib_nbgl/src/nbgl_use_case.o:(.text.genericContextComputeNextPageParams)
c0dea638 c0dea638        0     1                 $t.101
c0dea639 c0dea639      124     1                 genericContextComputeNextPageParams
c0dea74c c0dea74c        0     1                 $d.102
c0dea75c c0dea75c       28     4         build/flex/obj/sdk/lib_nbgl/src/nbgl_use_case.o:(.text.genericContextGetPageInfo)
c0dea75c c0dea75c        0     1                 $t.103
c0dea75d c0dea75d       28     1                 genericContextGetPageInfo
c0dea780 c0dea780        0     1                 $d.104
c0dea784 c0dea784        6     2         build/flex/obj/sdk/lib_nbgl/src/nbgl_use_case.o:(.text.bundleNavStartSettings)
c0dea784 c0dea784        0     1                 $t.105
c0dea785 c0dea785        6     1                 bundleNavStartSettings
c0dea78c c0dea78c      1bc     4         build/flex/obj/sdk/lib_nbgl/src/nbgl_use_case.o:(.text.displayFullValuePage)
c0dea78c c0dea78c        0     1                 $t.106
c0dea78d c0dea78d      1bc     1                 displayFullValuePage
c0dea934 c0dea934        0     1                 $d.107
c0dea948 c0dea948      214     4         build/flex/obj/sdk/lib_nbgl/src/nbgl_use_case.o:(.text.displaySecurityReport)
c0dea948 c0dea948        0     1                 $t.108
c0dea949 c0dea949      214     1                 displaySecurityReport
c0deab1c c0deab1c        0     1                 $d.109
c0deab5c c0deab5c       f8     4         build/flex/obj/sdk/lib_nbgl/src/nbgl_use_case.o:(.text.displayCustomizedSecurityReport)
c0deab5c c0deab5c        0     1                 $t.110
c0deab5d c0deab5d       f8     1                 displayCustomizedSecurityReport
c0deac44 c0deac44        0     1                 $d.111
c0deac54 c0deac54       84     4         build/flex/obj/sdk/lib_nbgl/src/nbgl_use_case.o:(.text.displayInfosListModal)
c0deac54 c0deac54        0     1                 $t.112
c0deac55 c0deac55       84     1                 displayInfosListModal
c0deacc8 c0deacc8        0     1                 $d.113
c0deacd8 c0deacd8       dc     4         build/flex/obj/sdk/lib_nbgl/src/nbgl_use_case.o:(.text.modalLayoutTouchCallback)
c0deacd8 c0deacd8        0     1                 $t.114
c0deacd9 c0deacd9       dc     1                 modalLayoutTouchCallback
c0deadac c0deadac        0     1                 $d.115
c0deadb4 c0deadb4      174     4         build/flex/obj/sdk/lib_nbgl/src/nbgl_use_case.o:(.text.displayDetailsPage)
c0deadb4 c0deadb4        0     1                 $t.116
c0deadb5 c0deadb5      174     1                 displayDetailsPage
c0deaf18 c0deaf18        0     1                 $d.117
c0deaf28 c0deaf28      128     4         build/flex/obj/sdk/lib_nbgl/src/nbgl_use_case.o:(.text.displayTagValueListModalPage)
c0deaf28 c0deaf28        0     1                 $t.118
c0deaf29 c0deaf29      128     1                 displayTagValueListModalPage
c0deb03c c0deb03c        0     1                 $d.119
c0deb050 c0deb050       24     4         build/flex/obj/sdk/lib_nbgl/src/nbgl_use_case.o:(.text.bundleNavReviewChoice)
c0deb050 c0deb050        0     1                 $t.120
c0deb051 c0deb051       24     1                 bundleNavReviewChoice
c0deb06c c0deb06c        0     1                 $d.121
c0deb074 c0deb074       bc     4         build/flex/obj/sdk/lib_nbgl/src/nbgl_use_case.o:(.text.initWarningTipBox)
c0deb074 c0deb074        0     1                 $t.122
c0deb075 c0deb075       bc     1                 initWarningTipBox
c0deb104 c0deb104        0     1                 $d.123
c0deb130 c0deb130       54     4         build/flex/obj/sdk/lib_nbgl/src/nbgl_use_case.o:(.text.bundleNavReviewAskRejectionConfirmation)
c0deb130 c0deb130        0     1                 $t.124
c0deb131 c0deb131       54     1                 bundleNavReviewAskRejectionConfirmation
c0deb168 c0deb168        0     1                 $d.125
c0deb184 c0deb184        c     4         build/flex/obj/sdk/lib_nbgl/src/nbgl_use_case.o:(.text.bundleNavReviewConfirmRejection)
c0deb184 c0deb184        0     1                 $t.126
c0deb185 c0deb185        c     1                 bundleNavReviewConfirmRejection
c0deb18c c0deb18c        0     1                 $d.127
c0deb190 c0deb190       a0     4         build/flex/obj/sdk/lib_nbgl/src/nbgl_use_case.o:(.text.layoutTouchCallback)
c0deb190 c0deb190        0     1                 $t.128
c0deb191 c0deb191       a0     1                 layoutTouchCallback
c0deb228 c0deb228        0     1                 $d.129
c0deb230 c0deb230        c     4         build/flex/obj/sdk/lib_nbgl/src/nbgl_use_case.o:(.text.bundleNavReviewStreamingConfirmRejection)
c0deb230 c0deb230        0     1                 $t.130
c0deb231 c0deb231        c     1                 bundleNavReviewStreamingConfirmRejection
c0deb238 c0deb238        0     1                 $d.131
c0deb23c c0deb23c        a     2         build/flex/obj/sdk/lib_nbgl/src/nbgl_use_case.o:(.text.OUTLINED_FUNCTION_0)
c0deb23c c0deb23c        0     1                 $t.132
c0deb23d c0deb23d        a     1                 OUTLINED_FUNCTION_0
c0deb246 c0deb246        c     2         build/flex/obj/sdk/lib_nbgl/src/nbgl_use_case.o:(.text.OUTLINED_FUNCTION_1)
c0deb246 c0deb246        0     1                 $t.133
c0deb247 c0deb247        c     1                 OUTLINED_FUNCTION_1
c0deb252 c0deb252        a     2         build/flex/obj/sdk/lib_nbgl/src/nbgl_use_case.o:(.text.OUTLINED_FUNCTION_2)
c0deb252 c0deb252        0     1                 $t.134
c0deb253 c0deb253        a     1                 OUTLINED_FUNCTION_2
c0deb25c c0deb25c        6     2         build/flex/obj/sdk/lib_nbgl/src/nbgl_use_case.o:(.text.OUTLINED_FUNCTION_3)
c0deb25c c0deb25c        0     1                 $t.135
c0deb25d c0deb25d        6     1                 OUTLINED_FUNCTION_3
c0deb262 c0deb262       12     2         build/flex/obj/sdk/lib_nbgl/src/nbgl_use_case.o:(.text.OUTLINED_FUNCTION_4)
c0deb262 c0deb262        0     1                 $t.136
c0deb263 c0deb263       12     1                 OUTLINED_FUNCTION_4
c0deb274 c0deb274        6     2         build/flex/obj/sdk/lib_nbgl/src/nbgl_use_case.o:(.text.OUTLINED_FUNCTION_5)
c0deb274 c0deb274        0     1                 $t.137
c0deb275 c0deb275        6     1                 OUTLINED_FUNCTION_5
c0deb27a c0deb27a        6     2         build/flex/obj/sdk/lib_nbgl/src/nbgl_use_case.o:(.text.OUTLINED_FUNCTION_6)
c0deb27a c0deb27a        0     1                 $t.138
c0deb27b c0deb27b        6     1                 OUTLINED_FUNCTION_6
c0deb280 c0deb280        c     2         build/flex/obj/sdk/lib_nbgl/src/nbgl_use_case.o:(.text.OUTLINED_FUNCTION_7)
c0deb280 c0deb280        0     1                 $t.139
c0deb281 c0deb281        c     1                 OUTLINED_FUNCTION_7
c0deb28c c0deb28c        8     2         build/flex/obj/sdk/lib_nbgl/src/nbgl_use_case.o:(.text.OUTLINED_FUNCTION_9)
c0deb28c c0deb28c        0     1                 $t.141
c0deb28d c0deb28d        8     1                 OUTLINED_FUNCTION_9
c0deb294 c0deb294        a     2         build/flex/obj/sdk/lib_nbgl/src/nbgl_use_case.o:(.text.OUTLINED_FUNCTION_11)
c0deb294 c0deb294        0     1                 $t.143
c0deb295 c0deb295        a     1                 OUTLINED_FUNCTION_11
c0deb29e c0deb29e        a     2         build/flex/obj/sdk/lib_nbgl/src/nbgl_use_case.o:(.text.OUTLINED_FUNCTION_12)
c0deb29e c0deb29e        0     1                 $t.144
c0deb29f c0deb29f        a     1                 OUTLINED_FUNCTION_12
c0deb2a8 c0deb2a8        6     2         build/flex/obj/sdk/lib_nbgl/src/nbgl_use_case.o:(.text.OUTLINED_FUNCTION_13)
c0deb2a8 c0deb2a8        0     1                 $t.145
c0deb2a9 c0deb2a9        6     1                 OUTLINED_FUNCTION_13
c0deb2ae c0deb2ae        a     2         build/flex/obj/sdk/lib_nbgl/src/nbgl_use_case.o:(.text.OUTLINED_FUNCTION_14)
c0deb2ae c0deb2ae        0     1                 $t.146
c0deb2af c0deb2af        a     1                 OUTLINED_FUNCTION_14
c0deb2b8 c0deb2b8       4e     2         build/flex/obj/sdk/lib_standard_app/bip32.o:(.text.bip32_path_read)
c0deb2b8 c0deb2b8        0     1                 $t.0
c0deb2b9 c0deb2b9       4e     1                 bip32_path_read
c0deb306 c0deb306       16     2         build/flex/obj/sdk/lib_standard_app/buffer.o:(.text.buffer_seek_cur)
c0deb306 c0deb306        0     1                 $t.2
c0deb307 c0deb307       16     1                 buffer_seek_cur
c0deb31c c0deb31c       2c     2         build/flex/obj/sdk/lib_standard_app/buffer.o:(.text.buffer_read_u8)
c0deb31c c0deb31c        0     1                 $t.4
c0deb31d c0deb31d       2c     1                 buffer_read_u8
c0deb348 c0deb348       40     2         build/flex/obj/sdk/lib_standard_app/buffer.o:(.text.buffer_read_u64)
c0deb348 c0deb348        0     1                 $t.7
c0deb349 c0deb349       40     1                 buffer_read_u64
c0deb388 c0deb388       3a     2         build/flex/obj/sdk/lib_standard_app/buffer.o:(.text.buffer_read_varint)
c0deb388 c0deb388        0     1                 $t.8
c0deb389 c0deb389       3a     1                 buffer_read_varint
c0deb3c2 c0deb3c2       2e     2         build/flex/obj/sdk/lib_standard_app/buffer.o:(.text.buffer_read_bip32_path)
c0deb3c2 c0deb3c2        0     1                 $t.9
c0deb3c3 c0deb3c3       2e     1                 buffer_read_bip32_path
c0deb3f0 c0deb3f0       26     2         build/flex/obj/sdk/lib_standard_app/buffer.o:(.text.buffer_copy)
c0deb3f0 c0deb3f0        0     1                 $t.10
c0deb3f1 c0deb3f1       26     1                 buffer_copy
c0deb416 c0deb416       32     2         build/flex/obj/sdk/lib_standard_app/buffer.o:(.text.buffer_move)
c0deb416 c0deb416        0     1                 $t.11
c0deb417 c0deb417       32     1                 buffer_move
c0deb448 c0deb448        c     2         build/flex/obj/sdk/lib_standard_app/buffer.o:(.text.OUTLINED_FUNCTION_0)
c0deb448 c0deb448        0     1                 $t.12
c0deb449 c0deb449        c     1                 OUTLINED_FUNCTION_0
c0deb454 c0deb454       70     2         build/flex/obj/sdk/lib_standard_app/crypto_helpers.o:(.text.bip32_derive_with_seed_init_privkey_256)
c0deb454 c0deb454        0     1                 $t.0
c0deb455 c0deb455       70     1                 bip32_derive_with_seed_init_privkey_256
c0deb4c4 c0deb4c4       80     2         build/flex/obj/sdk/lib_standard_app/crypto_helpers.o:(.text.os_derive_bip32_with_seed_no_throw)
c0deb4c4 c0deb4c4        0     1                 $t.1
c0deb4c5 c0deb4c5       80     1                 os_derive_bip32_with_seed_no_throw
c0deb544 c0deb544       68     2         build/flex/obj/sdk/lib_standard_app/crypto_helpers.o:(.text.bip32_derive_with_seed_get_pubkey_256)
c0deb544 c0deb544        0     1                 $t.2
c0deb545 c0deb545       68     1                 bip32_derive_with_seed_get_pubkey_256
c0deb5ac c0deb5ac       4e     2         build/flex/obj/sdk/lib_standard_app/crypto_helpers.o:(.text.bip32_derive_with_seed_ecdsa_sign_hash_256)
c0deb5ac c0deb5ac        0     1                 $t.3
c0deb5ad c0deb5ad       4e     1                 bip32_derive_with_seed_ecdsa_sign_hash_256
c0deb5fa c0deb5fa        6     2         build/flex/obj/sdk/lib_standard_app/crypto_helpers.o:(.text.OUTLINED_FUNCTION_0)
c0deb5fa c0deb5fa        0     1                 $t.6
c0deb5fb c0deb5fb        6     1                 OUTLINED_FUNCTION_0
c0deb600 c0deb600       72     2         build/flex/obj/sdk/lib_standard_app/format.o:(.text.format_u64)
c0deb600 c0deb600        0     1                 $t.2
c0deb601 c0deb601       72     1                 format_u64
c0deb672 c0deb672       8e     2         build/flex/obj/sdk/lib_standard_app/format.o:(.text.format_fpu64)
c0deb672 c0deb672        0     1                 $t.3
c0deb673 c0deb673       8e     1                 format_fpu64
c0deb700 c0deb700       50     4         build/flex/obj/sdk/lib_standard_app/format.o:(.text.format_hex)
c0deb700 c0deb700        0     1                 $t.5
c0deb701 c0deb701       50     1                 format_hex
c0deb74c c0deb74c        0     1                 $d.6
c0deb750 c0deb750        2     2         build/flex/obj/sdk/lib_standard_app/io.o:(.text.app_ticker_event_callback)
c0deb750 c0deb750        0     1                 $t.0
c0deb751 c0deb751        2     1                 app_ticker_event_callback
c0deb754 c0deb754       34     4         build/flex/obj/sdk/lib_standard_app/io.o:(.text.io_event)
c0deb754 c0deb754        0     1                 $t.1
c0deb755 c0deb755       34     1                 io_event
c0deb784 c0deb784        0     1                 $d.2
c0deb788 c0deb788       10     4         build/flex/obj/sdk/lib_standard_app/io.o:(.text.io_init)
c0deb788 c0deb788        0     1                 $t.3
c0deb789 c0deb789       10     1                 io_init
c0deb794 c0deb794        0     1                 $d.4
c0deb798 c0deb798       2c     4         build/flex/obj/sdk/lib_standard_app/io.o:(.text.io_recv_command)
c0deb798 c0deb798        0     1                 $t.5
c0deb799 c0deb799       2c     1                 io_recv_command
c0deb7c0 c0deb7c0        0     1                 $d.6
c0deb7c4 c0deb7c4       6c     4         build/flex/obj/sdk/lib_standard_app/io.o:(.text.io_send_response_buffers)
c0deb7c4 c0deb7c4        0     1                 $t.7
c0deb7c5 c0deb7c5       6c     1                 io_send_response_buffers
c0deb82c c0deb82c        0     1                 $d.8
c0deb830 c0deb830        6     2         build/flex/obj/sdk/lib_standard_app/main.o:(.text.app_exit)
c0deb830 c0deb830        0     1                 $t.0
c0deb831 c0deb831        6     1                 app_exit
c0deb836 c0deb836        e     2         build/flex/obj/sdk/lib_standard_app/main.o:(.text.common_app_init)
c0deb836 c0deb836        0     1                 $t.1
c0deb837 c0deb837        e     1                 common_app_init
c0deb844 c0deb844       4e     2         build/flex/obj/sdk/lib_standard_app/main.o:(.text.standalone_app_main)
c0deb844 c0deb844        0     1                 $t.2
c0deb845 c0deb845       4e     1                 standalone_app_main
c0deb892 c0deb892       36     2         build/flex/obj/sdk/lib_standard_app/parser.o:(.text.apdu_parser)
c0deb892 c0deb892        0     1                 $t.0
c0deb893 c0deb893       36     1                 apdu_parser
c0deb8c8 c0deb8c8       18     2         build/flex/obj/sdk/lib_standard_app/read.o:(.text.read_u32_be)
c0deb8c8 c0deb8c8        0     1                 $t.1
c0deb8c9 c0deb8c9       18     1                 read_u32_be
c0deb8e0 c0deb8e0       30     2         build/flex/obj/sdk/lib_standard_app/read.o:(.text.read_u64_be)
c0deb8e0 c0deb8e0        0     1                 $t.2
c0deb8e1 c0deb8e1       30     1                 read_u64_be
c0deb910 c0deb910        e     2         build/flex/obj/sdk/lib_standard_app/read.o:(.text.read_u16_le)
c0deb910 c0deb910        0     1                 $t.3
c0deb911 c0deb911        e     1                 read_u16_le
c0deb91e c0deb91e       18     2         build/flex/obj/sdk/lib_standard_app/read.o:(.text.read_u32_le)
c0deb91e c0deb91e        0     1                 $t.4
c0deb91f c0deb91f       18     1                 read_u32_le
c0deb936 c0deb936       2e     2         build/flex/obj/sdk/lib_standard_app/read.o:(.text.read_u64_le)
c0deb936 c0deb936        0     1                 $t.5
c0deb937 c0deb937       2e     1                 read_u64_le
c0deb964 c0deb964       5c     2         build/flex/obj/sdk/lib_standard_app/varint.o:(.text.varint_read)
c0deb964 c0deb964        0     1                 $t.1
c0deb965 c0deb965       5c     1                 varint_read
c0deb9c0 c0deb9c0        a     2         build/flex/obj/sdk/lib_standard_app/write.o:(.text.write_u16_be)
c0deb9c0 c0deb9c0        0     1                 $t.0
c0deb9c1 c0deb9c1        a     1                 write_u16_be
c0deb9cc c0deb9cc       58     4         build/flex/obj/sdk/lib_ux_nbgl/ux.o:(.text.ux_process_finger_event)
c0deb9cc c0deb9cc        0     1                 $t.0
c0deb9cd c0deb9cd       58     1                 ux_process_finger_event
c0deba20 c0deba20        0     1                 $d.1
c0deba24 c0deba24       54     4         build/flex/obj/sdk/lib_ux_nbgl/ux.o:(.text.ux_forward_event)
c0deba24 c0deba24        0     1                 $t.2
c0deba25 c0deba25       54     1                 ux_forward_event
c0deba74 c0deba74        0     1                 $d.3
c0deba78 c0deba78       6c     4         build/flex/obj/sdk/lib_ux_nbgl/ux.o:(.text.ux_process_ticker_event)
c0deba78 c0deba78        0     1                 $t.4
c0deba79 c0deba79       6c     1                 ux_process_ticker_event
c0debae0 c0debae0        0     1                 $d.5
c0debae4 c0debae4        6     2         build/flex/obj/sdk/lib_ux_nbgl/ux.o:(.text.ux_process_default_event)
c0debae4 c0debae4        0     1                 $t.6
c0debae5 c0debae5        6     1                 ux_process_default_event
c0debaea c0debaea       4e     2         build/flex/obj/sdk/src/cx_hash_iovec.o:(.text.hash_iovec_ex)
c0debaea c0debaea        0     1                 $t.7
c0debaeb c0debaeb       4e     1                 hash_iovec_ex
c0debb38 c0debb38       1a     2         build/flex/obj/sdk/src/cx_hash_iovec.o:(.text.cx_keccak_256_hash_iovec)
c0debb38 c0debb38        0     1                 $t.12
c0debb39 c0debb39       1a     1                 cx_keccak_256_hash_iovec
c0debb52 c0debb52        a     1         build/flex/obj/sdk/src/cx_stubs.o:(.text.cx_ecdsa_sign_no_throw)
c0debb52 c0debb52        0     1                 $t.44
c0debb53 c0debb53        0     1                 cx_ecdsa_sign_no_throw
c0debb5c c0debb5c        a     1         build/flex/obj/sdk/src/cx_stubs.o:(.text.cx_ecfp_generate_pair2_no_throw)
c0debb5c c0debb5c        0     1                 $t.49
c0debb5d c0debb5d        0     1                 cx_ecfp_generate_pair2_no_throw
c0debb66 c0debb66        a     1         build/flex/obj/sdk/src/cx_stubs.o:(.text.cx_ecfp_init_private_key_no_throw)
c0debb66 c0debb66        0     1                 $t.51
c0debb67 c0debb67        0     1                 cx_ecfp_init_private_key_no_throw
c0debb70 c0debb70        a     1         build/flex/obj/sdk/src/cx_stubs.o:(.text.cx_hash_final)
c0debb70 c0debb70        0     1                 $t.63
c0debb71 c0debb71        0     1                 cx_hash_final
c0debb7a c0debb7a        a     1         build/flex/obj/sdk/src/cx_stubs.o:(.text.cx_hash_init_ex)
c0debb7a c0debb7a        0     1                 $t.67
c0debb7b c0debb7b        0     1                 cx_hash_init_ex
c0debb84 c0debb84        a     1         build/flex/obj/sdk/src/cx_stubs.o:(.text.cx_hash_update)
c0debb84 c0debb84        0     1                 $t.72
c0debb85 c0debb85        0     1                 cx_hash_update
c0debb8e c0debb8e        a     1         build/flex/obj/sdk/src/cx_stubs.o:(.text.cx_rng_no_throw)
c0debb8e c0debb8e        0     1                 $t.106
c0debb8f c0debb8f        0     1                 cx_rng_no_throw
c0debb98 c0debb98       10     4         build/flex/obj/sdk/src/cx_stubs.o:(.text.cx_aes_siv_reset)
c0debb98 c0debb98        0     1                 $t.144
c0debb99 c0debb99        0     1                 cx_aes_siv_reset
c0debba1 c0debba1        0     1                 cx_trampoline_helper
c0debba4 c0debba4        0     1                 $d.145
c0debba8 c0debba8        6     2         build/flex/obj/sdk/src/ledger_assert.o:(.text.assert_exit)
c0debba8 c0debba8        0     1                 $t.0
c0debba9 c0debba9        6     1                 assert_exit
c0debbae c0debbae        a     1         build/flex/obj/sdk/src/nbgl_stubs.o:(.text.nbgl_refresh)
c0debbae c0debbae        0     1                 $t.0
c0debbaf c0debbaf        0     1                 nbgl_refresh
c0debbb8 c0debbb8        a     1         build/flex/obj/sdk/src/nbgl_stubs.o:(.text.nbgl_refreshSpecial)
c0debbb8 c0debbb8        0     1                 $t.1
c0debbb9 c0debbb9        0     1                 nbgl_refreshSpecial
c0debbc2 c0debbc2        a     1         build/flex/obj/sdk/src/nbgl_stubs.o:(.text.nbgl_refreshSpecialWithPostRefresh)
c0debbc2 c0debbc2        0     1                 $t.2
c0debbc3 c0debbc3        0     1                 nbgl_refreshSpecialWithPostRefresh
c0debbcc c0debbcc        a     1         build/flex/obj/sdk/src/nbgl_stubs.o:(.text.nbgl_objInit)
c0debbcc c0debbcc        0     1                 $t.5
c0debbcd c0debbcd        0     1                 nbgl_objInit
c0debbd6 c0debbd6        a     1         build/flex/obj/sdk/src/nbgl_stubs.o:(.text.nbgl_objDraw)
c0debbd6 c0debbd6        0     1                 $t.6
c0debbd7 c0debbd7        0     1                 nbgl_objDraw
c0debbe0 c0debbe0        a     1         build/flex/obj/sdk/src/nbgl_stubs.o:(.text.nbgl_objAllowDrawing)
c0debbe0 c0debbe0        0     1                 $t.7
c0debbe1 c0debbe1        0     1                 nbgl_objAllowDrawing
c0debbea c0debbea        a     1         build/flex/obj/sdk/src/nbgl_stubs.o:(.text.nbgl_screenSet)
c0debbea c0debbea        0     1                 $t.10
c0debbeb c0debbeb        0     1                 nbgl_screenSet
c0debbf4 c0debbf4        a     1         build/flex/obj/sdk/src/nbgl_stubs.o:(.text.nbgl_screenPush)
c0debbf4 c0debbf4        0     1                 $t.11
c0debbf5 c0debbf5        0     1                 nbgl_screenPush
c0debbfe c0debbfe        a     1         build/flex/obj/sdk/src/nbgl_stubs.o:(.text.nbgl_screenRedraw)
c0debbfe c0debbfe        0     1                 $t.12
c0debbff c0debbff        0     1                 nbgl_screenRedraw
c0debc08 c0debc08        a     1         build/flex/obj/sdk/src/nbgl_stubs.o:(.text.nbgl_screenPop)
c0debc08 c0debc08        0     1                 $t.13
c0debc09 c0debc09        0     1                 nbgl_screenPop
c0debc12 c0debc12        a     1         build/flex/obj/sdk/src/nbgl_stubs.o:(.text.nbgl_screenUpdateTicker)
c0debc12 c0debc12        0     1                 $t.19
c0debc13 c0debc13        0     1                 nbgl_screenUpdateTicker
c0debc1c c0debc1c        a     1         build/flex/obj/sdk/src/nbgl_stubs.o:(.text.nbgl_screenHandler)
c0debc1c c0debc1c        0     1                 $t.22
c0debc1d c0debc1d        0     1                 nbgl_screenHandler
c0debc26 c0debc26        a     1         build/flex/obj/sdk/src/nbgl_stubs.o:(.text.nbgl_objPoolGet)
c0debc26 c0debc26        0     1                 $t.23
c0debc27 c0debc27        0     1                 nbgl_objPoolGet
c0debc30 c0debc30        a     1         build/flex/obj/sdk/src/nbgl_stubs.o:(.text.nbgl_containerPoolGet)
c0debc30 c0debc30        0     1                 $t.25
c0debc31 c0debc31        0     1                 nbgl_containerPoolGet
c0debc3a c0debc3a        a     1         build/flex/obj/sdk/src/nbgl_stubs.o:(.text.nbgl_getFont)
c0debc3a c0debc3a        0     1                 $t.27
c0debc3b c0debc3b        0     1                 nbgl_getFont
c0debc44 c0debc44        a     1         build/flex/obj/sdk/src/nbgl_stubs.o:(.text.nbgl_getFontHeight)
c0debc44 c0debc44        0     1                 $t.28
c0debc45 c0debc45        0     1                 nbgl_getFontHeight
c0debc4e c0debc4e        a     1         build/flex/obj/sdk/src/nbgl_stubs.o:(.text.nbgl_getFontLineHeight)
c0debc4e c0debc4e        0     1                 $t.29
c0debc4f c0debc4f        0     1                 nbgl_getFontLineHeight
c0debc58 c0debc58        a     1         build/flex/obj/sdk/src/nbgl_stubs.o:(.text.nbgl_getTextHeightInWidth)
c0debc58 c0debc58        0     1                 $t.33
c0debc59 c0debc59        0     1                 nbgl_getTextHeightInWidth
c0debc62 c0debc62        a     1         build/flex/obj/sdk/src/nbgl_stubs.o:(.text.nbgl_getTextNbLinesInWidth)
c0debc62 c0debc62        0     1                 $t.34
c0debc63 c0debc63        0     1                 nbgl_getTextNbLinesInWidth
c0debc6c c0debc6c        a     1         build/flex/obj/sdk/src/nbgl_stubs.o:(.text.nbgl_getTextWidth)
c0debc6c c0debc6c        0     1                 $t.36
c0debc6d c0debc6d        0     1                 nbgl_getTextWidth
c0debc76 c0debc76        a     1         build/flex/obj/sdk/src/nbgl_stubs.o:(.text.nbgl_getTextMaxLenInNbLines)
c0debc76 c0debc76        0     1                 $t.37
c0debc77 c0debc77        0     1                 nbgl_getTextMaxLenInNbLines
c0debc80 c0debc80        a     1         build/flex/obj/sdk/src/nbgl_stubs.o:(.text.nbgl_textReduceOnNbLines)
c0debc80 c0debc80        0     1                 $t.38
c0debc81 c0debc81        0     1                 nbgl_textReduceOnNbLines
c0debc8a c0debc8a        a     1         build/flex/obj/sdk/src/nbgl_stubs.o:(.text.nbgl_touchHandler)
c0debc8a c0debc8a        0     1                 $t.41
c0debc8b c0debc8b        0     1                 nbgl_touchHandler
c0debc94 c0debc94        a     1         build/flex/obj/sdk/src/nbgl_stubs.o:(.text.nbgl_touchGetTouchDuration)
c0debc94 c0debc94        0     1                 $t.42
c0debc95 c0debc95        0     1                 nbgl_touchGetTouchDuration
c0debca0 c0debca0       10     4         build/flex/obj/sdk/src/nbgl_stubs.o:(.text.pic_init)
c0debca0 c0debca0        0     1                 $t.50
c0debca1 c0debca1        0     1                 pic_init
c0debca9 c0debca9        0     1                 nbgl_trampoline_helper
c0debcac c0debcac        0     1                 $d.51
c0debcb0 c0debcb0        6     2         build/flex/obj/sdk/src/os.o:(.text.os_boot)
c0debcb0 c0debcb0        0     1                 $t.0
c0debcb1 c0debcb1        6     1                 os_boot
c0debcb6 c0debcb6        c     2         build/flex/obj/sdk/src/os.o:(.text.os_longjmp)
c0debcb6 c0debcb6        0     1                 $t.3
c0debcb7 c0debcb7        c     1                 os_longjmp
c0debcc4 c0debcc4      324     4         build/flex/obj/sdk/src/os_printf.o:(.text.snprintf)
c0debcc4 c0debcc4        0     1                 $t.0
c0debcc5 c0debcc5      324     1                 snprintf
c0debfd4 c0debfd4        0     1                 $d.1
c0debfe8 c0debfe8       3c     4         build/flex/obj/sdk/src/pic.o:(.text.pic)
c0debfe8 c0debfe8        0     1                 $t.0
c0debfe9 c0debfe9       2a     1                 pic
c0dec014 c0dec014        0     1                 $d.2
c0dec024 c0dec024       10     4         build/flex/obj/sdk/src/pic.o:(.text.pic_internal)
c0dec024 c0dec024        0     1                 $t.1
c0dec025 c0dec025        c     1                 pic_internal
c0dec030 c0dec030        0     1                 $d.3
c0dec034 c0dec034        e     4         build/flex/obj/sdk/src/svc_call.o:(.text)
c0dec034 c0dec034        0     1                 $t.0
c0dec035 c0dec035        0     1                 SVC_Call
c0dec03c c0dec03c        0     1                 exception
c0dec044 c0dec044        4     4         build/flex/obj/sdk/src/svc_cx_call.o:(.text)
c0dec044 c0dec044        0     1                 $t.0
c0dec045 c0dec045        0     1                 SVC_cx_call
c0dec048 c0dec048       14     4         build/flex/obj/sdk/src/syscalls.o:(.text.nbgl_wait_pipeline)
c0dec048 c0dec048        0     1                 $t.23
c0dec049 c0dec049       14     1                 nbgl_wait_pipeline
c0dec058 c0dec058        0     1                 $d.24
c0dec05c c0dec05c       14     4         build/flex/obj/sdk/src/syscalls.o:(.text.nvm_write)
c0dec05c c0dec05c        0     1                 $t.25
c0dec05d c0dec05d       14     1                 nvm_write
c0dec06c c0dec06c        0     1                 $d.26
c0dec070 c0dec070       14     4         build/flex/obj/sdk/src/syscalls.o:(.text.cx_ecdomain_parameters_length)
c0dec070 c0dec070        0     1                 $t.136
c0dec071 c0dec071       14     1                 cx_ecdomain_parameters_length
c0dec080 c0dec080        0     1                 $d.137
c0dec084 c0dec084       28     4         build/flex/obj/sdk/src/syscalls.o:(.text.os_perso_derive_node_with_seed_key)
c0dec084 c0dec084        0     1                 $t.212
c0dec085 c0dec085       28     1                 os_perso_derive_node_with_seed_key
c0dec0a8 c0dec0a8        0     1                 $d.213
c0dec0ac c0dec0ac       20     4         build/flex/obj/sdk/src/syscalls.o:(.text.os_pki_load_certificate)
c0dec0ac c0dec0ac        0     1                 $t.216
c0dec0ad c0dec0ad       20     1                 os_pki_load_certificate
c0dec0c8 c0dec0c8        0     1                 $d.217
c0dec0cc c0dec0cc       12     2         build/flex/obj/sdk/src/syscalls.o:(.text.os_perso_is_pin_set)
c0dec0cc c0dec0cc        0     1                 $t.242
c0dec0cd c0dec0cd       12     1                 os_perso_is_pin_set
c0dec0de c0dec0de       12     2         build/flex/obj/sdk/src/syscalls.o:(.text.os_global_pin_is_validated)
c0dec0de c0dec0de        0     1                 $t.243
c0dec0df c0dec0df       12     1                 os_global_pin_is_validated
c0dec0f0 c0dec0f0       14     4         build/flex/obj/sdk/src/syscalls.o:(.text.os_ux)
c0dec0f0 c0dec0f0        0     1                 $t.251
c0dec0f1 c0dec0f1       14     1                 os_ux
c0dec100 c0dec100        0     1                 $d.252
c0dec104 c0dec104       10     2         build/flex/obj/sdk/src/syscalls.o:(.text.os_flags)
c0dec104 c0dec104        0     1                 $t.260
c0dec105 c0dec105       10     1                 os_flags
c0dec114 c0dec114       18     4         build/flex/obj/sdk/src/syscalls.o:(.text.os_setting_get)
c0dec114 c0dec114        0     1                 $t.272
c0dec115 c0dec115       18     1                 os_setting_get
c0dec128 c0dec128        0     1                 $d.273
c0dec12c c0dec12c       18     4         build/flex/obj/sdk/src/syscalls.o:(.text.os_registry_get_current_app_tag)
c0dec12c c0dec12c        0     1                 $t.280
c0dec12d c0dec12d       18     1                 os_registry_get_current_app_tag
c0dec140 c0dec140        0     1                 $d.281
c0dec144 c0dec144       14     4         build/flex/obj/sdk/src/syscalls.o:(.text.os_sched_exit)
c0dec144 c0dec144        0     1                 $t.287
c0dec145 c0dec145       14     1                 os_sched_exit
c0dec154 c0dec154        0     1                 $d.288
c0dec158 c0dec158       14     4         build/flex/obj/sdk/src/syscalls.o:(.text.os_io_init)
c0dec158 c0dec158        0     1                 $t.299
c0dec159 c0dec159       14     1                 os_io_init
c0dec168 c0dec168        0     1                 $d.300
c0dec16c c0dec16c       14     4         build/flex/obj/sdk/src/syscalls.o:(.text.os_io_start)
c0dec16c c0dec16c        0     1                 $t.301
c0dec16d c0dec16d       14     1                 os_io_start
c0dec17c c0dec17c        0     1                 $d.302
c0dec180 c0dec180       18     4         build/flex/obj/sdk/src/syscalls.o:(.text.os_io_tx_cmd)
c0dec180 c0dec180        0     1                 $t.305
c0dec181 c0dec181       18     1                 os_io_tx_cmd
c0dec194 c0dec194        0     1                 $d.306
c0dec198 c0dec198       18     4         build/flex/obj/sdk/src/syscalls.o:(.text.os_io_rx_evt)
c0dec198 c0dec198        0     1                 $t.307
c0dec199 c0dec199       18     1                 os_io_rx_evt
c0dec1ac c0dec1ac        0     1                 $d.308
c0dec1b0 c0dec1b0       10     2         build/flex/obj/sdk/src/syscalls.o:(.text.try_context_get)
c0dec1b0 c0dec1b0        0     1                 $t.313
c0dec1b1 c0dec1b1       10     1                 try_context_get
c0dec1c0 c0dec1c0       14     4         build/flex/obj/sdk/src/syscalls.o:(.text.try_context_set)
c0dec1c0 c0dec1c0        0     1                 $t.314
c0dec1c1 c0dec1c1       14     1                 try_context_set
c0dec1d0 c0dec1d0        0     1                 $d.315
c0dec1d4 c0dec1d4       18     4         build/flex/obj/sdk/src/syscalls.o:(.text.os_sched_last_status)
c0dec1d4 c0dec1d4        0     1                 $t.316
c0dec1d5 c0dec1d5       18     1                 os_sched_last_status
c0dec1e8 c0dec1e8        0     1                 $d.317
c0dec1ec c0dec1ec       14     4         build/flex/obj/sdk/src/syscalls.o:(.text.touch_get_last_info)
c0dec1ec c0dec1ec        0     1                 $t.333
c0dec1ed c0dec1ed       14     1                 touch_get_last_info
c0dec1fc c0dec1fc        0     1                 $d.334
c0dec200 c0dec200        8     2         build/flex/obj/sdk/src/syscalls.o:(.text.OUTLINED_FUNCTION_0)
c0dec200 c0dec200        0     1                 $t.339
c0dec201 c0dec201        8     1                 OUTLINED_FUNCTION_0
c0dec208 c0dec208       22     4         /opt/flex-secure-sdk/arch/st33k1/lib/libclang_rt.builtins.a(ashldi3.c.o):(.text)
c0dec208 c0dec208        0     1                 $t.0
c0dec209 c0dec209       22     1                 __ashldi3
c0dec209 c0dec209       22     1                 __aeabi_llsl
c0dec22c c0dec22c       22     4         /opt/flex-secure-sdk/arch/st33k1/lib/libclang_rt.builtins.a(lshrdi3.c.o):(.text)
c0dec22c c0dec22c        0     1                 $t.0
c0dec22d c0dec22d       22     1                 __lshrdi3
c0dec22d c0dec22d       22     1                 __aeabi_llsr
c0dec250 c0dec250      1c6     4         /opt/flex-secure-sdk/arch/st33k1/lib/libclang_rt.builtins.a(udivmoddi4.c.o):(.text)
c0dec250 c0dec250        0     1                 $t.0
c0dec251 c0dec251      1c6     1                 __udivmoddi4
c0dec418 c0dec418        4     4         /opt/flex-secure-sdk/arch/st33k1/lib/libclang_rt.builtins.a(aeabi_memcpy.S.o):(.text)
c0dec418 c0dec418        0     1                 $t.0
c0dec419 c0dec419        4     1                 __aeabi_memcpy
c0dec419 c0dec419        4     1                 __aeabi_memcpy4
c0dec419 c0dec419        4     1                 __aeabi_memcpy8
c0dec41c c0dec41c        4     4         /opt/flex-secure-sdk/arch/st33k1/lib/libclang_rt.builtins.a(aeabi_memmove.S.o):(.text)
c0dec41c c0dec41c        0     1                 $t.0
c0dec41d c0dec41d        4     1                 __aeabi_memmove
c0dec41d c0dec41d        4     1                 __aeabi_memmove4
c0dec41d c0dec41d        4     1                 __aeabi_memmove8
c0dec420 c0dec420       14     4         /opt/flex-secure-sdk/arch/st33k1/lib/libclang_rt.builtins.a(aeabi_memset.S.o):(.text)
c0dec420 c0dec420        0     1                 $t.0
c0dec421 c0dec421        a     1                 __aeabi_memset
c0dec421 c0dec421        a     1                 __aeabi_memset4
c0dec421 c0dec421        a     1                 __aeabi_memset8
c0dec42d c0dec42d        8     1                 __aeabi_memclr
c0dec42d c0dec42d        8     1                 __aeabi_memclr4
c0dec42d c0dec42d        8     1                 __aeabi_memclr8
c0dec434 c0dec434       14     4         /opt/flex-secure-sdk/arch/st33k1/lib/libclang_rt.builtins.a(aeabi_uldivmod.S.o):(.text)
c0dec434 c0dec434        0     1                 $t.0
c0dec435 c0dec435       14     1                 __aeabi_uldivmod
c0dec448 c0dec448        4     2         /opt/flex-secure-sdk/arch/st33k1/lib/libc.a(lib_a-explicit_bzero.o):(.text.explicit_bzero)
c0dec448 c0dec448        0     1                 $t
c0dec449 c0dec449        4     1                 explicit_bzero
c0dec44c c0dec44c        8     2         /opt/flex-secure-sdk/arch/st33k1/lib/libc.a(lib_a-bzero.o):(.text.bzero)
c0dec44c c0dec44c        0     1                 $t
c0dec44d c0dec44d        8     1                 bzero
c0dec454 c0dec454       20     2         /opt/flex-secure-sdk/arch/st33k1/lib/libc.a(lib_a-memcmp.o):(.text.memcmp)
c0dec454 c0dec454        0     1                 $t
c0dec455 c0dec455       20     1                 memcmp
c0dec474 c0dec474       1c     2         /opt/flex-secure-sdk/arch/st33k1/lib/libc.a(lib_a-memcpy-stub.o):(.text.memcpy)
c0dec474 c0dec474        0     1                 $t
c0dec475 c0dec475       1c     1                 memcpy
c0dec490 c0dec490       34     2         /opt/flex-secure-sdk/arch/st33k1/lib/libc.a(lib_a-memmove.o):(.text.memmove)
c0dec490 c0dec490        0     1                 $t
c0dec491 c0dec491       34     1                 memmove
c0dec4c4 c0dec4c4       10     2         /opt/flex-secure-sdk/arch/st33k1/lib/libc.a(lib_a-memset.o):(.text.memset)
c0dec4c4 c0dec4c4        0     1                 $t
c0dec4c5 c0dec4c5       10     1                 memset
c0dec4d4 c0dec4d4       1c     4         /opt/flex-secure-sdk/arch/st33k1/lib/libc.a(lib_a-setjmp.o):(.text)
c0dec4d4 c0dec4d4        0     1                 $t
c0dec4d5 c0dec4d5        c     1                 setjmp
c0dec4e1 c0dec4e1        e     1                 longjmp
c0dec4f0 c0dec4f0       14     2         /opt/flex-secure-sdk/arch/st33k1/lib/libc.a(lib_a-strcmp.o):(.text)
c0dec4f0 c0dec4f0        0     1                 $t
c0dec4f1 c0dec4f1       14     1                 strcmp
c0dec504 c0dec504       10     2         /opt/flex-secure-sdk/arch/st33k1/lib/libc.a(lib_a-strlen.o):(.text)
c0dec504 c0dec504        0     1                 $t
c0dec505 c0dec505       10     1                 strlen
c0dec514 c0dec514       26     2         /opt/flex-secure-sdk/arch/st33k1/lib/libc.a(lib_a-strncpy.o):(.text.strncpy)
c0dec514 c0dec514        0     1                 $t
c0dec515 c0dec515       26     1                 strncpy
c0dec53a c0dec53a        0     1         _ecode = .
c0dec53a c0dec53a      291     1         build/flex/gen_src/glyphs.o:(.rodata.C_app_zknox_64px_bitmap)
c0dec53a c0dec53a      291     1                 C_app_zknox_64px_bitmap
c0dec7cb c0dec7cb        a     1         build/flex/gen_src/glyphs.o:(.rodata.C_app_zknox_64px)
c0dec7cb c0dec7cb        a     1                 C_app_zknox_64px
c0dec7d5 c0dec7d5      23b     1         build/flex/gen_src/glyphs.o:(.rodata.C_Check_Circle_64px_bitmap)
c0dec7d5 c0dec7d5      23b     1                 C_Check_Circle_64px_bitmap
c0deca10 c0deca10        a     1         build/flex/gen_src/glyphs.o:(.rodata.C_Check_Circle_64px)
c0deca10 c0deca10        a     1                 C_Check_Circle_64px
c0deca1a c0deca1a      238     1         build/flex/gen_src/glyphs.o:(.rodata.C_Denied_Circle_64px_bitmap)
c0deca1a c0deca1a      238     1                 C_Denied_Circle_64px_bitmap
c0decc52 c0decc52        a     1         build/flex/gen_src/glyphs.o:(.rodata.C_Denied_Circle_64px)
c0decc52 c0decc52        a     1                 C_Denied_Circle_64px
c0decc5c c0decc5c      202     1         build/flex/gen_src/glyphs.o:(.rodata.C_Important_Circle_64px_bitmap)
c0decc5c c0decc5c      202     1                 C_Important_Circle_64px_bitmap
c0dece5e c0dece5e        a     1         build/flex/gen_src/glyphs.o:(.rodata.C_Important_Circle_64px)
c0dece5e c0dece5e        a     1                 C_Important_Circle_64px
c0dece68 c0dece68      167     1         build/flex/gen_src/glyphs.o:(.rodata.C_Warning_64px_bitmap)
c0dece68 c0dece68      167     1                 C_Warning_64px_bitmap
c0decfcf c0decfcf        a     1         build/flex/gen_src/glyphs.o:(.rodata.C_Warning_64px)
c0decfcf c0decfcf        a     1                 C_Warning_64px
c0decfd9 c0decfd9       94     1         build/flex/gen_src/glyphs.o:(.rodata.C_Back_40px_bitmap)
c0decfd9 c0decfd9       94     1                 C_Back_40px_bitmap
c0ded06d c0ded06d        a     1         build/flex/gen_src/glyphs.o:(.rodata.C_Back_40px)
c0ded06d c0ded06d        a     1                 C_Back_40px
c0ded077 c0ded077       5c     1         build/flex/gen_src/glyphs.o:(.rodata.C_Check_40px_bitmap)
c0ded077 c0ded077       5c     1                 C_Check_40px_bitmap
c0ded0d3 c0ded0d3        a     1         build/flex/gen_src/glyphs.o:(.rodata.C_Check_40px)
c0ded0d3 c0ded0d3        a     1                 C_Check_40px
c0ded0dd c0ded0dd       64     1         build/flex/gen_src/glyphs.o:(.rodata.C_Chevron_40px_bitmap)
c0ded0dd c0ded0dd       64     1                 C_Chevron_40px_bitmap
c0ded141 c0ded141        a     1         build/flex/gen_src/glyphs.o:(.rodata.C_Chevron_40px)
c0ded141 c0ded141        a     1                 C_Chevron_40px
c0ded14b c0ded14b       7e     1         build/flex/gen_src/glyphs.o:(.rodata.C_Chevron_Back_40px_bitmap)
c0ded14b c0ded14b       7e     1                 C_Chevron_Back_40px_bitmap
c0ded1c9 c0ded1c9        a     1         build/flex/gen_src/glyphs.o:(.rodata.C_Chevron_Back_40px)
c0ded1c9 c0ded1c9        a     1                 C_Chevron_Back_40px
c0ded1d3 c0ded1d3       79     1         build/flex/gen_src/glyphs.o:(.rodata.C_Chevron_Next_40px_bitmap)
c0ded1d3 c0ded1d3       79     1                 C_Chevron_Next_40px_bitmap
c0ded24c c0ded24c        a     1         build/flex/gen_src/glyphs.o:(.rodata.C_Chevron_Next_40px)
c0ded24c c0ded24c        a     1                 C_Chevron_Next_40px
c0ded256 c0ded256       8d     1         build/flex/gen_src/glyphs.o:(.rodata.C_Close_40px_bitmap)
c0ded256 c0ded256       8d     1                 C_Close_40px_bitmap
c0ded2e3 c0ded2e3        a     1         build/flex/gen_src/glyphs.o:(.rodata.C_Close_40px)
c0ded2e3 c0ded2e3        a     1                 C_Close_40px
c0ded2ed c0ded2ed       39     1         build/flex/gen_src/glyphs.o:(.rodata.C_Info_40px_bitmap)
c0ded2ed c0ded2ed       39     1                 C_Info_40px_bitmap
c0ded326 c0ded326        a     1         build/flex/gen_src/glyphs.o:(.rodata.C_Info_40px)
c0ded326 c0ded326        a     1                 C_Info_40px
c0ded330 c0ded330       d6     1         build/flex/gen_src/glyphs.o:(.rodata.C_Mini_Push_40px_bitmap)
c0ded330 c0ded330       d6     1                 C_Mini_Push_40px_bitmap
c0ded406 c0ded406        a     1         build/flex/gen_src/glyphs.o:(.rodata.C_Mini_Push_40px)
c0ded406 c0ded406        a     1                 C_Mini_Push_40px
c0ded410 c0ded410      1b4     1         build/flex/gen_src/glyphs.o:(.rodata.C_Privacy_40px_bitmap)
c0ded410 c0ded410      1b4     1                 C_Privacy_40px_bitmap
c0ded5c4 c0ded5c4        a     1         build/flex/gen_src/glyphs.o:(.rodata.C_Privacy_40px)
c0ded5c4 c0ded5c4        a     1                 C_Privacy_40px
c0ded5ce c0ded5ce       a1     1         build/flex/gen_src/glyphs.o:(.rodata.C_QRCode_40px_bitmap)
c0ded5ce c0ded5ce       a1     1                 C_QRCode_40px_bitmap
c0ded66f c0ded66f        a     1         build/flex/gen_src/glyphs.o:(.rodata.C_QRCode_40px)
c0ded66f c0ded66f        a     1                 C_QRCode_40px
c0ded679 c0ded679      19b     1         build/flex/gen_src/glyphs.o:(.rodata.C_Settings_40px_bitmap)
c0ded679 c0ded679      19b     1                 C_Settings_40px_bitmap
c0ded814 c0ded814        a     1         build/flex/gen_src/glyphs.o:(.rodata.C_Settings_40px)
c0ded814 c0ded814        a     1                 C_Settings_40px
c0ded81e c0ded81e       ef     1         build/flex/gen_src/glyphs.o:(.rodata.C_Warning_40px_bitmap)
c0ded81e c0ded81e       ef     1                 C_Warning_40px_bitmap
c0ded90d c0ded90d        a     1         build/flex/gen_src/glyphs.o:(.rodata.C_Warning_40px)
c0ded90d c0ded90d        a     1                 C_Warning_40px
c0ded917 c0ded917      993     1         <internal>:(.text)
c0dee2aa c0dee2aa      995     1         build/flex/obj/app/src/handler/zkn_magicbox.o:(.rodata.handler_cmd_verify_dilithium.sig)
c0dee2aa c0dee2aa      995     1                 handler_cmd_verify_dilithium.sig
c0deec3f c0deec3f      520     1         build/flex/obj/app/src/handler/zkn_magicbox.o:(.rodata.handler_cmd_verify_dilithium.pk)
c0deec3f c0deec3f      520     1                 handler_cmd_verify_dilithium.pk
c0def160 c0def160        c     4         build/flex/obj/app/src/ui/menu_nbgl.o:(.rodata.settingContents)
c0def160 c0def160        c     1                 settingContents
c0def16c c0def16c       10     4         build/flex/obj/app/src/ui/menu_nbgl.o:(.rodata.infoList)
c0def16c c0def16c       10     1                 infoList
c0def17c c0def17c       38     4         build/flex/obj/app/src/ui/menu_nbgl.o:(.rodata.contents)
c0def17c c0def17c       38     1                 contents
c0def1b4 c0def1b4        8     4         build/flex/obj/app/src/ui/menu_nbgl.o:(.rodata.INFO_TYPES)
c0def1b4 c0def1b4        8     1                 INFO_TYPES
c0def1bc c0def1bc        8     4         build/flex/obj/app/src/ui/menu_nbgl.o:(.rodata.INFO_CONTENTS)
c0def1bc c0def1bc        8     1                 INFO_CONTENTS
c0def1c8 c0def1c8       c0     8         build/flex/obj/app/src/zknox/dilithium/fips202.o:(.rodata.pqcrystals_dilithium_fips202_ref_KeccakF_RoundConstants)
c0def1c8 c0def1c8       c0     1                 pqcrystals_dilithium_fips202_ref_KeccakF_RoundConstants
c0def288 c0def288      400     4         build/flex/obj/app/src/zknox/dilithium/ntt.o:(.rodata.zetas)
c0def288 c0def288      400     1                 zetas
c0def688 c0def688      100     2         build/flex/obj/app/src/zknox/dilithium/smallntt_3329.o:(.rodata.small_zetas)
c0def688 c0def688      100     1                 small_zetas
c0def788 c0def788        c     4         build/flex/obj/sdk/lib_nbgl/src/nbgl_use_case.o:(.rodata..L__const.nbgl_useCaseStatus.ticker)
c0def788 c0def788        c     1                 .L__const.nbgl_useCaseStatus.ticker
c0def794 c0def794       28     4         build/flex/obj/sdk/lib_nbgl/src/nbgl_use_case.o:(.rodata.blindSigningWarning)
c0def794 c0def794       28     1                 blindSigningWarning
c0def7bc c0def7bc       36     4         <internal>:(.text)
c0def7f2 c0def7f2        b     1         build/flex/obj/sdk/lib_nbgl/src/nbgl_use_case.o:(.rodata.nbMaxElementsPerContentType)
c0def7f2 c0def7f2        b     1                 nbMaxElementsPerContentType
c0def800 c0def800       50     4         <internal>:(.text)
c0def850 c0def850       20     4         build/flex/obj/sdk/lib_nbgl/src/nbgl_use_case.o:(.rodata..L__const.displaySkipWarning.info)
c0def850 c0def850       20     1                 .L__const.displaySkipWarning.info
c0def870 c0def870       3c     4         build/flex/obj/sdk/lib_nbgl/src/nbgl_use_case.o:(.rodata.securityReportItems)
c0def870 c0def870       3c     1                 securityReportItems
c0def8ac c0def8ac       1c     4         build/flex/obj/sdk/lib_nbgl/src/nbgl_use_case.o:(.rodata..L__const.displayCustomizedSecurityReport.layoutDescription)
c0def8ac c0def8ac       1c     1                 .L__const.displayCustomizedSecurityReport.layoutDescription
c0def8c8 c0def8c8       1c     4         build/flex/obj/sdk/lib_nbgl/src/nbgl_use_case.o:(.rodata..L__const.displayInfosListModal.info)
c0def8c8 c0def8c8       1c     1                 .L__const.displayInfosListModal.info
c0def8e4 c0def8e4       10     4         build/flex/obj/sdk/lib_nbgl/src/nbgl_use_case.o:(.rodata..L__const.displayInitialWarning.buttonsInfo)
c0def8e4 c0def8e4       10     1                 .L__const.displayInitialWarning.buttonsInfo
c0def8f4 c0def8f4        0     1         . = ALIGN ( 4 )
c0def8f4 c0def8f4        0     1         _etext = .
c0def8f4 c0def8f4      10c     1         . = ALIGN ( PAGE_SIZE )
c0defa00 c0defa00        0     1         _nvram_data = .
c0defa00 c0defa00        3     1         build/flex/obj/app/src/app_main.o:(.rodata.N_storage_real)
c0defa00 c0defa00        3     1                 N_storage_real
c0defa03 c0defa03      1fd     1         . = ALIGN ( PAGE_SIZE )
c0defc00 c0defc00        0     1         _envram_data = .
c0defc00 c0defc00        0     1         _install_parameters = .
c0defc00 c0defc00      168     1         build/flex/obj/sdk/src/app_metadata.o:(.install_parameters)
c0defc00 c0defc00      168     1                 install_parameters
c0defd68 c0defd68        0     1         _einstall_parameters = .
c0defd68 c0defd68        0     1         _nvram_end = .
d0000000 d0000000        0     1 .data
d0000000 d0000000        0     1         . = ALIGN ( 4 )
d0000000 d0000000        0     1         _data = .
d0000000 d0000000        0     1         _edata = .
d0000000 d0000000        0     1 
da7a0000 da7a0000     1df4     8 .bss
da7a0000 da7a0000        0     1         _bss = .
da7a0000 da7a0000      2d8     8         build/flex/obj/app/src/app_main.o:(.bss.G_context)
da7a0000 da7a0000      2d8     1                 G_context
da7a02d8 da7a02d8     1118     8         build/flex/obj/app/src/app_main.o:(.bss.g_zknox)
da7a02d8 da7a02d8     1118     1                 g_zknox
da7a13f0 da7a13f0       1c     4         build/flex/obj/app/src/ui/menu_nbgl.o:(.bss..L_MergedGlobals)
da7a13f0 da7a13f0       1c     1                 .L_MergedGlobals
da7a13f0 da7a13f0        1     1                 initSettingPage
da7a13f4 da7a13f4       18     1                 switches
da7a140c da7a140c       2b     4         build/flex/obj/app/src/ui/nbgl_display_address.o:(.bss.g_address)
da7a140c da7a140c       2b     1                 g_address
da7a1438 da7a1438       7f     4         build/flex/obj/app/src/ui/nbgl_display_transaction.o:(.bss..L_MergedGlobals)
da7a1438 da7a1438       7f     1                 .L_MergedGlobals
da7a1438 da7a1438       14     1                 pairList
da7a144c da7a144c       1e     1                 g_amount
da7a146c da7a146c       20     1                 pairs
da7a148c da7a148c       2b     1                 g_address
da7a14b7 da7a14b7      111     1         build/flex/obj/sdk/io/src/os_io.o:(.bss.G_io_tx_buffer)
da7a14b7 da7a14b7      111     1                 G_io_tx_buffer
da7a15c8 da7a15c8      111     1         build/flex/obj/sdk/io/src/os_io.o:(.bss.G_io_rx_buffer)
da7a15c8 da7a15c8      111     1                 G_io_rx_buffer
da7a16dc da7a16dc        c     4         build/flex/obj/sdk/io_legacy/src/os_io_legacy.o:(.bss.G_io_app)
da7a16dc da7a16dc        c     1                 G_io_app
da7a16e8 da7a16e8        2     1         build/flex/obj/sdk/io_legacy/src/os_io_legacy.o:(.bss..L_MergedGlobals)
da7a16e8 da7a16e8        2     1                 .L_MergedGlobals
da7a16e8 da7a16e8        1     1                 need_to_start_io
da7a16e9 da7a16e9        1     1                 io_os_legacy_apdu_type
da7a16ec da7a16ec      21c     4         build/flex/obj/sdk/lib_nbgl/src/nbgl_layout.o:(.bss.gLayout)
da7a16ec da7a16ec      21c     1                 gLayout
da7a1908 da7a1908        8     4         build/flex/obj/sdk/lib_nbgl/src/nbgl_layout.o:(.bss..L_MergedGlobals)
da7a1908 da7a1908        8     1                 .L_MergedGlobals
da7a1908 da7a1908        1     1                 nbTouchableControls
da7a190c da7a190c        4     1                 topLayout
da7a1910 da7a1910        b     1         build/flex/obj/sdk/lib_nbgl/src/nbgl_layout_navigation.o:(.bss.navText)
da7a1910 da7a1910        b     1                 navText
da7a191c da7a191c       6c     4         build/flex/obj/sdk/lib_nbgl/src/nbgl_use_case.o:(.bss.genericContext)
da7a191c da7a191c       6c     1                 genericContext
da7a1988 da7a1988       a8     4         build/flex/obj/sdk/lib_nbgl/src/nbgl_use_case.o:(.bss.localContentsList)
da7a1988 da7a1988       a8     1                 localContentsList
da7a1a30 da7a1a30       38     4         build/flex/obj/sdk/lib_nbgl/src/nbgl_use_case.o:(.bss.addressConfirmationContext)
da7a1a30 da7a1a30       38     1                 addressConfirmationContext
da7a1a68 da7a1a68       80     4         build/flex/obj/sdk/lib_nbgl/src/nbgl_use_case.o:(.bss.tmpString)
da7a1a68 da7a1a68       80     1                 tmpString
da7a1ae8 da7a1ae8       80     1         build/flex/obj/sdk/lib_nbgl/src/nbgl_use_case.o:(.bss.genericContextPagesInfo)
da7a1ae8 da7a1ae8       80     1                 genericContextPagesInfo
da7a1b68 da7a1b68       80     1         build/flex/obj/sdk/lib_nbgl/src/nbgl_use_case.o:(.bss.reducedAddress)
da7a1b68 da7a1b68       80     1                 reducedAddress
da7a1be8 da7a1be8       7c     4         build/flex/obj/sdk/lib_nbgl/src/nbgl_use_case.o:(.bss..L_MergedGlobals)
da7a1be8 da7a1be8       7c     1                 .L_MergedGlobals
da7a1be8 da7a1be8        1     1                 navType
da7a1bec da7a1bec        4     1                 onQuit
da7a1bf0 da7a1bf0        4     1                 onNav
da7a1bf4 da7a1bf4        4     1                 onControls
da7a1bf8 da7a1bf8        4     1                 pageTitle
da7a1bfc da7a1bfc        4     1                 pageContext
da7a1c00 da7a1c00        4     1                 onChoice
da7a1c04 da7a1c04        4     1                 onModalConfirm
da7a1c08 da7a1c08        4     1                 modalPageContext
da7a1c0c da7a1c0c        4     1                 onAction
da7a1c10 da7a1c10        4     1                 onContinue
da7a1c14 da7a1c14        4     1                 onContentAction
da7a1c18 da7a1c18       10     1                 detailsContext
da7a1c28 da7a1c28       10     1                 displayDetailsPage.currentPair
da7a1c38 da7a1c38       10     1                 modalContextPagesInfo
da7a1c48 da7a1c48       1c     1                 navInfo
da7a1c64 da7a1c64       48     4         build/flex/obj/sdk/lib_nbgl/src/nbgl_use_case.o:(.bss..L_MergedGlobals.77)
da7a1c64 da7a1c64       48     1                 .L_MergedGlobals.77
da7a1c64 da7a1c64       20     1                 activeTipBox
da7a1c84 da7a1c84       28     1                 bundleNavContext
da7a1cac da7a1cac      110     1         build/flex/obj/sdk/lib_standard_app/io.o:(.bss.G_io_seproxyhal_spi_buffer)
da7a1cac da7a1cac      110     1                 G_io_seproxyhal_spi_buffer
da7a1dbc da7a1dbc        1     1         build/flex/obj/sdk/lib_standard_app/io.o:(.bss.need_to_start_io)
da7a1dbc da7a1dbc        1     1                 need_to_start_io
da7a1dc0 da7a1dc0       20     4         build/flex/obj/sdk/lib_standard_app/main.o:(.bss.G_ux_params)
da7a1dc0 da7a1dc0       20     1                 G_ux_params
da7a1de0 da7a1de0        1     1         build/flex/obj/sdk/lib_u2f_legacy/src/u2f_legacy.o:(.bss.G_io_u2f)
da7a1de0 da7a1de0        1     1                 G_io_u2f
da7a1de4 da7a1de4        a     4         build/flex/obj/sdk/lib_ux_nbgl/ux.o:(.bss..L_MergedGlobals)
da7a1de4 da7a1de4        a     1                 .L_MergedGlobals
da7a1de4 da7a1de4        4     1                 nbTicks
da7a1de8 da7a1de8        6     1                 pos
da7a1dee da7a1dee        0     1         _ebss = .
da7a1dee da7a1dee        2     1         . = ALIGN ( 4 )
da7a1df0 da7a1df0        0     1         app_stack_canary = .
da7a1df0 da7a1df0        4     1         . += 4
da7a1df4 da7a1df4        0     1         _stack = .
da7a1df4 da7a1df4        0     1         _estack = ABSOLUTE ( END_STACK )
da7a1df4 da7a1df4        0     1 
d0000000 d0000000       10     4 DEBUG
d0000000 d0000000       10     4         <internal>:(.ARM.exidx)
       0        0       5d     1 .comment
       0        0       5d     1         <internal>:(.comment)
       0        0        4     1 ledger.target
       0        0        4     1         build/flex/obj/sdk/src/app_metadata.o:(ledger.target)
       0        0        4     1                 target
       0        0        b     1 ledger.target_name
       0        0        b     1         build/flex/obj/sdk/src/app_metadata.o:(ledger.target_name)
       0        0        b     1                 target_name
       0        0        a     1 ledger.target_id
       0        0        a     1         build/flex/obj/sdk/src/app_metadata.o:(ledger.target_id)
       0        0        a     1                 target_id
       0        0        5     1 ledger.app_name
       0        0        5     1         build/flex/obj/sdk/src/app_metadata.o:(ledger.app_name)
       0        0        5     1                 app_name
       0        0        5     1 ledger.app_version
       0        0        5     1         build/flex/obj/sdk/src/app_metadata.o:(ledger.app_version)
       0        0        5     1                 app_version
       0        0        2     1 ledger.api_level
       0        0        2     1         build/flex/obj/sdk/src/app_metadata.o:(ledger.api_level)
       0        0        2     1                 api_level
       0        0       11     1 ledger.sdk_name
       0        0       11     1         build/flex/obj/sdk/src/app_metadata.o:(ledger.sdk_name)
       0        0       11     1                 sdk_name
       0        0        7     1 ledger.sdk_version
       0        0        7     1         build/flex/obj/sdk/src/app_metadata.o:(ledger.sdk_version)
       0        0        7     1                 sdk_version
       0        0       28     1 ledger.sdk_hash
       0        0       28     1         build/flex/obj/sdk/src/app_metadata.o:(ledger.sdk_hash)
       0        0       28     1                 sdk_hash
       0        0        4     1 ledger.sdk_graphics
       0        0        4     1         build/flex/obj/sdk/src/app_metadata.o:(ledger.sdk_graphics)
       0        0        4     1                 sdk_graphics
d0000010 d0000010        0     1 PROVIDE ( _nvram = ABSOLUTE ( _nvram_start ) )
d0000010 d0000010        0     1 PROVIDE ( _envram = ABSOLUTE ( _nvram_end ) )
       0        0       45     1 .ARM.attributes
       0        0       45     1         build/flex/gen_src/glyphs.o:(.ARM.attributes)
       0        0     5740     4 .symtab
       0        0     5740     4         <internal>:(.symtab)
       0        0       f8     1 .shstrtab
       0        0       f8     1         <internal>:(.shstrtab)
       0        0     4937     1 .strtab
       0        0     4937     1         <internal>:(.strtab)
